
benchmark:     file format elf64-x86-64


Disassembly of section .init:

00000000004010d0 <_init>:
  4010d0:	48 83 ec 08          	sub    rsp,0x8
  4010d4:	48 8b 05 1d cf 20 00 	mov    rax,QWORD PTR [rip+0x20cf1d]        # 60dff8 <_DYNAMIC+0x230>
  4010db:	48 85 c0             	test   rax,rax
  4010de:	74 05                	je     4010e5 <_init+0x15>
  4010e0:	e8 4b 03 00 00       	call   401430 <fflush@plt+0x10>
  4010e5:	48 83 c4 08          	add    rsp,0x8
  4010e9:	c3                   	ret    

Disassembly of section .plt:

00000000004010f0 <mprotect@plt-0x10>:
  4010f0:	ff 35 12 cf 20 00    	push   QWORD PTR [rip+0x20cf12]        # 60e008 <_GLOBAL_OFFSET_TABLE_+0x8>
  4010f6:	ff 25 14 cf 20 00    	jmp    QWORD PTR [rip+0x20cf14]        # 60e010 <_GLOBAL_OFFSET_TABLE_+0x10>
  4010fc:	0f 1f 40 00          	nop    DWORD PTR [rax+0x0]

0000000000401100 <mprotect@plt>:
  401100:	ff 25 12 cf 20 00    	jmp    QWORD PTR [rip+0x20cf12]        # 60e018 <_GLOBAL_OFFSET_TABLE_+0x18>
  401106:	68 00 00 00 00       	push   0x0
  40110b:	e9 e0 ff ff ff       	jmp    4010f0 <_init+0x20>

0000000000401110 <fileno@plt>:
  401110:	ff 25 0a cf 20 00    	jmp    QWORD PTR [rip+0x20cf0a]        # 60e020 <_GLOBAL_OFFSET_TABLE_+0x20>
  401116:	68 01 00 00 00       	push   0x1
  40111b:	e9 d0 ff ff ff       	jmp    4010f0 <_init+0x20>

0000000000401120 <memset@plt>:
  401120:	ff 25 02 cf 20 00    	jmp    QWORD PTR [rip+0x20cf02]        # 60e028 <_GLOBAL_OFFSET_TABLE_+0x28>
  401126:	68 02 00 00 00       	push   0x2
  40112b:	e9 c0 ff ff ff       	jmp    4010f0 <_init+0x20>

0000000000401130 <snprintf@plt>:
  401130:	ff 25 fa ce 20 00    	jmp    QWORD PTR [rip+0x20cefa]        # 60e030 <_GLOBAL_OFFSET_TABLE_+0x30>
  401136:	68 03 00 00 00       	push   0x3
  40113b:	e9 b0 ff ff ff       	jmp    4010f0 <_init+0x20>

0000000000401140 <backtrace@plt>:
  401140:	ff 25 f2 ce 20 00    	jmp    QWORD PTR [rip+0x20cef2]        # 60e038 <_GLOBAL_OFFSET_TABLE_+0x38>
  401146:	68 04 00 00 00       	push   0x4
  40114b:	e9 a0 ff ff ff       	jmp    4010f0 <_init+0x20>

0000000000401150 <__libc_free@plt>:
  401150:	ff 25 ea ce 20 00    	jmp    QWORD PTR [rip+0x20ceea]        # 60e040 <_GLOBAL_OFFSET_TABLE_+0x40>
  401156:	68 05 00 00 00       	push   0x5
  40115b:	e9 90 ff ff ff       	jmp    4010f0 <_init+0x20>

0000000000401160 <close@plt>:
  401160:	ff 25 e2 ce 20 00    	jmp    QWORD PTR [rip+0x20cee2]        # 60e048 <_GLOBAL_OFFSET_TABLE_+0x48>
  401166:	68 06 00 00 00       	push   0x6
  40116b:	e9 80 ff ff ff       	jmp    4010f0 <_init+0x20>

0000000000401170 <abort@plt>:
  401170:	ff 25 da ce 20 00    	jmp    QWORD PTR [rip+0x20ceda]        # 60e050 <_GLOBAL_OFFSET_TABLE_+0x50>
  401176:	68 07 00 00 00       	push   0x7
  40117b:	e9 70 ff ff ff       	jmp    4010f0 <_init+0x20>

0000000000401180 <getrusage@plt>:
  401180:	ff 25 d2 ce 20 00    	jmp    QWORD PTR [rip+0x20ced2]        # 60e058 <_GLOBAL_OFFSET_TABLE_+0x58>
  401186:	68 08 00 00 00       	push   0x8
  40118b:	e9 60 ff ff ff       	jmp    4010f0 <_init+0x20>

0000000000401190 <isatty@plt>:
  401190:	ff 25 ca ce 20 00    	jmp    QWORD PTR [rip+0x20ceca]        # 60e060 <_GLOBAL_OFFSET_TABLE_+0x60>
  401196:	68 09 00 00 00       	push   0x9
  40119b:	e9 50 ff ff ff       	jmp    4010f0 <_init+0x20>

00000000004011a0 <__isoc99_sscanf@plt>:
  4011a0:	ff 25 c2 ce 20 00    	jmp    QWORD PTR [rip+0x20cec2]        # 60e068 <_GLOBAL_OFFSET_TABLE_+0x68>
  4011a6:	68 0a 00 00 00       	push   0xa
  4011ab:	e9 40 ff ff ff       	jmp    4010f0 <_init+0x20>

00000000004011b0 <exit@plt>:
  4011b0:	ff 25 ba ce 20 00    	jmp    QWORD PTR [rip+0x20ceba]        # 60e070 <_GLOBAL_OFFSET_TABLE_+0x70>
  4011b6:	68 0b 00 00 00       	push   0xb
  4011bb:	e9 30 ff ff ff       	jmp    4010f0 <_init+0x20>

00000000004011c0 <_ZNSt8ios_base4InitC1Ev@plt>:
  4011c0:	ff 25 b2 ce 20 00    	jmp    QWORD PTR [rip+0x20ceb2]        # 60e078 <_GLOBAL_OFFSET_TABLE_+0x78>
  4011c6:	68 0c 00 00 00       	push   0xc
  4011cb:	e9 20 ff ff ff       	jmp    4010f0 <_init+0x20>

00000000004011d0 <__libc_malloc@plt>:
  4011d0:	ff 25 aa ce 20 00    	jmp    QWORD PTR [rip+0x20ceaa]        # 60e080 <_GLOBAL_OFFSET_TABLE_+0x80>
  4011d6:	68 0d 00 00 00       	push   0xd
  4011db:	e9 10 ff ff ff       	jmp    4010f0 <_init+0x20>

00000000004011e0 <read@plt>:
  4011e0:	ff 25 a2 ce 20 00    	jmp    QWORD PTR [rip+0x20cea2]        # 60e088 <_GLOBAL_OFFSET_TABLE_+0x88>
  4011e6:	68 0e 00 00 00       	push   0xe
  4011eb:	e9 00 ff ff ff       	jmp    4010f0 <_init+0x20>

00000000004011f0 <strncmp@plt>:
  4011f0:	ff 25 9a ce 20 00    	jmp    QWORD PTR [rip+0x20ce9a]        # 60e090 <_GLOBAL_OFFSET_TABLE_+0x90>
  4011f6:	68 0f 00 00 00       	push   0xf
  4011fb:	e9 f0 fe ff ff       	jmp    4010f0 <_init+0x20>

0000000000401200 <__libc_start_main@plt>:
  401200:	ff 25 92 ce 20 00    	jmp    QWORD PTR [rip+0x20ce92]        # 60e098 <_GLOBAL_OFFSET_TABLE_+0x98>
  401206:	68 10 00 00 00       	push   0x10
  40120b:	e9 e0 fe ff ff       	jmp    4010f0 <_init+0x20>

0000000000401210 <unlink@plt>:
  401210:	ff 25 8a ce 20 00    	jmp    QWORD PTR [rip+0x20ce8a]        # 60e0a0 <_GLOBAL_OFFSET_TABLE_+0xa0>
  401216:	68 11 00 00 00       	push   0x11
  40121b:	e9 d0 fe ff ff       	jmp    4010f0 <_init+0x20>

0000000000401220 <__cxa_atexit@plt>:
  401220:	ff 25 82 ce 20 00    	jmp    QWORD PTR [rip+0x20ce82]        # 60e0a8 <_GLOBAL_OFFSET_TABLE_+0xa8>
  401226:	68 12 00 00 00       	push   0x12
  40122b:	e9 c0 fe ff ff       	jmp    4010f0 <_init+0x20>

0000000000401230 <sysconf@plt>:
  401230:	ff 25 7a ce 20 00    	jmp    QWORD PTR [rip+0x20ce7a]        # 60e0b0 <_GLOBAL_OFFSET_TABLE_+0xb0>
  401236:	68 13 00 00 00       	push   0x13
  40123b:	e9 b0 fe ff ff       	jmp    4010f0 <_init+0x20>

0000000000401240 <_ZNSt8ios_base4InitD1Ev@plt>:
  401240:	ff 25 72 ce 20 00    	jmp    QWORD PTR [rip+0x20ce72]        # 60e0b8 <_GLOBAL_OFFSET_TABLE_+0xb8>
  401246:	68 14 00 00 00       	push   0x14
  40124b:	e9 a0 fe ff ff       	jmp    4010f0 <_init+0x20>

0000000000401250 <vfprintf@plt>:
  401250:	ff 25 6a ce 20 00    	jmp    QWORD PTR [rip+0x20ce6a]        # 60e0c0 <_GLOBAL_OFFSET_TABLE_+0xc0>
  401256:	68 15 00 00 00       	push   0x15
  40125b:	e9 90 fe ff ff       	jmp    4010f0 <_init+0x20>

0000000000401260 <strnlen@plt>:
  401260:	ff 25 62 ce 20 00    	jmp    QWORD PTR [rip+0x20ce62]        # 60e0c8 <_GLOBAL_OFFSET_TABLE_+0xc8>
  401266:	68 16 00 00 00       	push   0x16
  40126b:	e9 80 fe ff ff       	jmp    4010f0 <_init+0x20>

0000000000401270 <fputc@plt>:
  401270:	ff 25 5a ce 20 00    	jmp    QWORD PTR [rip+0x20ce5a]        # 60e0d0 <_GLOBAL_OFFSET_TABLE_+0xd0>
  401276:	68 17 00 00 00       	push   0x17
  40127b:	e9 70 fe ff ff       	jmp    4010f0 <_init+0x20>

0000000000401280 <backtrace_symbols@plt>:
  401280:	ff 25 52 ce 20 00    	jmp    QWORD PTR [rip+0x20ce52]        # 60e0d8 <_GLOBAL_OFFSET_TABLE_+0xd8>
  401286:	68 18 00 00 00       	push   0x18
  40128b:	e9 60 fe ff ff       	jmp    4010f0 <_init+0x20>

0000000000401290 <strlen@plt>:
  401290:	ff 25 4a ce 20 00    	jmp    QWORD PTR [rip+0x20ce4a]        # 60e0e0 <_GLOBAL_OFFSET_TABLE_+0xe0>
  401296:	68 19 00 00 00       	push   0x19
  40129b:	e9 50 fe ff ff       	jmp    4010f0 <_init+0x20>

00000000004012a0 <__libc_realloc@plt>:
  4012a0:	ff 25 42 ce 20 00    	jmp    QWORD PTR [rip+0x20ce42]        # 60e0e8 <_GLOBAL_OFFSET_TABLE_+0xe8>
  4012a6:	68 1a 00 00 00       	push   0x1a
  4012ab:	e9 40 fe ff ff       	jmp    4010f0 <_init+0x20>

00000000004012b0 <strerror@plt>:
  4012b0:	ff 25 3a ce 20 00    	jmp    QWORD PTR [rip+0x20ce3a]        # 60e0f0 <_GLOBAL_OFFSET_TABLE_+0xf0>
  4012b6:	68 1b 00 00 00       	push   0x1b
  4012bb:	e9 30 fe ff ff       	jmp    4010f0 <_init+0x20>

00000000004012c0 <sigaction@plt>:
  4012c0:	ff 25 32 ce 20 00    	jmp    QWORD PTR [rip+0x20ce32]        # 60e0f8 <_GLOBAL_OFFSET_TABLE_+0xf8>
  4012c6:	68 1c 00 00 00       	push   0x1c
  4012cb:	e9 20 fe ff ff       	jmp    4010f0 <_init+0x20>

00000000004012d0 <mincore@plt>:
  4012d0:	ff 25 2a ce 20 00    	jmp    QWORD PTR [rip+0x20ce2a]        # 60e100 <_GLOBAL_OFFSET_TABLE_+0x100>
  4012d6:	68 1d 00 00 00       	push   0x1d
  4012db:	e9 10 fe ff ff       	jmp    4010f0 <_init+0x20>

00000000004012e0 <readlink@plt>:
  4012e0:	ff 25 22 ce 20 00    	jmp    QWORD PTR [rip+0x20ce22]        # 60e108 <_GLOBAL_OFFSET_TABLE_+0x108>
  4012e6:	68 1e 00 00 00       	push   0x1e
  4012eb:	e9 00 fe ff ff       	jmp    4010f0 <_init+0x20>

00000000004012f0 <raise@plt>:
  4012f0:	ff 25 1a ce 20 00    	jmp    QWORD PTR [rip+0x20ce1a]        # 60e110 <_GLOBAL_OFFSET_TABLE_+0x110>
  4012f6:	68 1f 00 00 00       	push   0x1f
  4012fb:	e9 f0 fd ff ff       	jmp    4010f0 <_init+0x20>

0000000000401300 <memmove@plt>:
  401300:	ff 25 12 ce 20 00    	jmp    QWORD PTR [rip+0x20ce12]        # 60e118 <_GLOBAL_OFFSET_TABLE_+0x118>
  401306:	68 20 00 00 00       	push   0x20
  40130b:	e9 e0 fd ff ff       	jmp    4010f0 <_init+0x20>

0000000000401310 <strchr@plt>:
  401310:	ff 25 0a ce 20 00    	jmp    QWORD PTR [rip+0x20ce0a]        # 60e120 <_GLOBAL_OFFSET_TABLE_+0x120>
  401316:	68 21 00 00 00       	push   0x21
  40131b:	e9 d0 fd ff ff       	jmp    4010f0 <_init+0x20>

0000000000401320 <getenv@plt>:
  401320:	ff 25 02 ce 20 00    	jmp    QWORD PTR [rip+0x20ce02]        # 60e128 <_GLOBAL_OFFSET_TABLE_+0x128>
  401326:	68 22 00 00 00       	push   0x22
  40132b:	e9 c0 fd ff ff       	jmp    4010f0 <_init+0x20>

0000000000401330 <__errno_location@plt>:
  401330:	ff 25 fa cd 20 00    	jmp    QWORD PTR [rip+0x20cdfa]        # 60e130 <_GLOBAL_OFFSET_TABLE_+0x130>
  401336:	68 23 00 00 00       	push   0x23
  40133b:	e9 b0 fd ff ff       	jmp    4010f0 <_init+0x20>

0000000000401340 <madvise@plt>:
  401340:	ff 25 f2 cd 20 00    	jmp    QWORD PTR [rip+0x20cdf2]        # 60e138 <_GLOBAL_OFFSET_TABLE_+0x138>
  401346:	68 24 00 00 00       	push   0x24
  40134b:	e9 a0 fd ff ff       	jmp    4010f0 <_init+0x20>

0000000000401350 <strcmp@plt>:
  401350:	ff 25 ea cd 20 00    	jmp    QWORD PTR [rip+0x20cdea]        # 60e140 <_GLOBAL_OFFSET_TABLE_+0x140>
  401356:	68 25 00 00 00       	push   0x25
  40135b:	e9 90 fd ff ff       	jmp    4010f0 <_init+0x20>

0000000000401360 <freopen@plt>:
  401360:	ff 25 e2 cd 20 00    	jmp    QWORD PTR [rip+0x20cde2]        # 60e148 <_GLOBAL_OFFSET_TABLE_+0x148>
  401366:	68 26 00 00 00       	push   0x26
  40136b:	e9 80 fd ff ff       	jmp    4010f0 <_init+0x20>

0000000000401370 <dlsym@plt>:
  401370:	ff 25 da cd 20 00    	jmp    QWORD PTR [rip+0x20cdda]        # 60e150 <_GLOBAL_OFFSET_TABLE_+0x150>
  401376:	68 27 00 00 00       	push   0x27
  40137b:	e9 70 fd ff ff       	jmp    4010f0 <_init+0x20>

0000000000401380 <ftruncate@plt>:
  401380:	ff 25 d2 cd 20 00    	jmp    QWORD PTR [rip+0x20cdd2]        # 60e158 <_GLOBAL_OFFSET_TABLE_+0x158>
  401386:	68 28 00 00 00       	push   0x28
  40138b:	e9 60 fd ff ff       	jmp    4010f0 <_init+0x20>

0000000000401390 <pthread_mutex_lock@plt>:
  401390:	ff 25 ca cd 20 00    	jmp    QWORD PTR [rip+0x20cdca]        # 60e160 <_GLOBAL_OFFSET_TABLE_+0x160>
  401396:	68 29 00 00 00       	push   0x29
  40139b:	e9 50 fd ff ff       	jmp    4010f0 <_init+0x20>

00000000004013a0 <fprintf@plt>:
  4013a0:	ff 25 c2 cd 20 00    	jmp    QWORD PTR [rip+0x20cdc2]        # 60e168 <_GLOBAL_OFFSET_TABLE_+0x168>
  4013a6:	68 2a 00 00 00       	push   0x2a
  4013ab:	e9 40 fd ff ff       	jmp    4010f0 <_init+0x20>

00000000004013b0 <sigaltstack@plt>:
  4013b0:	ff 25 ba cd 20 00    	jmp    QWORD PTR [rip+0x20cdba]        # 60e170 <_GLOBAL_OFFSET_TABLE_+0x170>
  4013b6:	68 2b 00 00 00       	push   0x2b
  4013bb:	e9 30 fd ff ff       	jmp    4010f0 <_init+0x20>

00000000004013c0 <pthread_mutex_unlock@plt>:
  4013c0:	ff 25 b2 cd 20 00    	jmp    QWORD PTR [rip+0x20cdb2]        # 60e178 <_GLOBAL_OFFSET_TABLE_+0x178>
  4013c6:	68 2c 00 00 00       	push   0x2c
  4013cb:	e9 20 fd ff ff       	jmp    4010f0 <_init+0x20>

00000000004013d0 <memcpy@plt>:
  4013d0:	ff 25 aa cd 20 00    	jmp    QWORD PTR [rip+0x20cdaa]        # 60e180 <_GLOBAL_OFFSET_TABLE_+0x180>
  4013d6:	68 2d 00 00 00       	push   0x2d
  4013db:	e9 10 fd ff ff       	jmp    4010f0 <_init+0x20>

00000000004013e0 <fcntl@plt>:
  4013e0:	ff 25 a2 cd 20 00    	jmp    QWORD PTR [rip+0x20cda2]        # 60e188 <_GLOBAL_OFFSET_TABLE_+0x188>
  4013e6:	68 2e 00 00 00       	push   0x2e
  4013eb:	e9 00 fd ff ff       	jmp    4010f0 <_init+0x20>

00000000004013f0 <open@plt>:
  4013f0:	ff 25 9a cd 20 00    	jmp    QWORD PTR [rip+0x20cd9a]        # 60e190 <_GLOBAL_OFFSET_TABLE_+0x190>
  4013f6:	68 2f 00 00 00       	push   0x2f
  4013fb:	e9 f0 fc ff ff       	jmp    4010f0 <_init+0x20>

0000000000401400 <mmap@plt>:
  401400:	ff 25 92 cd 20 00    	jmp    QWORD PTR [rip+0x20cd92]        # 60e198 <_GLOBAL_OFFSET_TABLE_+0x198>
  401406:	68 30 00 00 00       	push   0x30
  40140b:	e9 e0 fc ff ff       	jmp    4010f0 <_init+0x20>

0000000000401410 <_IO_putc@plt>:
  401410:	ff 25 8a cd 20 00    	jmp    QWORD PTR [rip+0x20cd8a]        # 60e1a0 <_GLOBAL_OFFSET_TABLE_+0x1a0>
  401416:	68 31 00 00 00       	push   0x31
  40141b:	e9 d0 fc ff ff       	jmp    4010f0 <_init+0x20>

0000000000401420 <fflush@plt>:
  401420:	ff 25 82 cd 20 00    	jmp    QWORD PTR [rip+0x20cd82]        # 60e1a8 <_GLOBAL_OFFSET_TABLE_+0x1a8>
  401426:	68 32 00 00 00       	push   0x32
  40142b:	e9 c0 fc ff ff       	jmp    4010f0 <_init+0x20>

Disassembly of section .plt.got:

0000000000401430 <.plt.got>:
  401430:	ff 25 c2 cb 20 00    	jmp    QWORD PTR [rip+0x20cbc2]        # 60dff8 <_DYNAMIC+0x230>
  401436:	66 90                	xchg   ax,ax

Disassembly of section .text:

0000000000401440 <_GLOBAL__sub_I_benchmark.cpp>:
  401440:	53                   	push   rbx
  401441:	48 bb 09 e2 60 00 00 	movabs rbx,0x60e209
  401448:	00 00 00 
  40144b:	48 89 df             	mov    rdi,rbx
  40144e:	e8 6d fd ff ff       	call   4011c0 <_ZNSt8ios_base4InitC1Ev@plt>
  401453:	48 bf 40 12 40 00 00 	movabs rdi,0x401240
  40145a:	00 00 00 
  40145d:	48 ba b8 e1 60 00 00 	movabs rdx,0x60e1b8
  401464:	00 00 00 
  401467:	48 89 de             	mov    rsi,rbx
  40146a:	5b                   	pop    rbx
  40146b:	e9 b0 fd ff ff       	jmp    401220 <__cxa_atexit@plt>

0000000000401470 <_start>:
  401470:	31 ed                	xor    ebp,ebp
  401472:	49 89 d1             	mov    r9,rdx
  401475:	5e                   	pop    rsi
  401476:	48 89 e2             	mov    rdx,rsp
  401479:	48 83 e4 f0          	and    rsp,0xfffffffffffffff0
  40147d:	50                   	push   rax
  40147e:	54                   	push   rsp
  40147f:	49 c7 c0 20 a3 40 00 	mov    r8,0x40a320
  401486:	48 c7 c1 b0 a2 40 00 	mov    rcx,0x40a2b0
  40148d:	48 c7 c7 70 15 40 00 	mov    rdi,0x401570
  401494:	e8 67 fd ff ff       	call   401200 <__libc_start_main@plt>
  401499:	f4                   	hlt    
  40149a:	66 0f 1f 44 00 00    	nop    WORD PTR [rax+rax*1+0x0]

00000000004014a0 <deregister_tm_clones>:
  4014a0:	b8 ef e1 60 00       	mov    eax,0x60e1ef
  4014a5:	55                   	push   rbp
  4014a6:	48 2d e8 e1 60 00    	sub    rax,0x60e1e8
  4014ac:	48 83 f8 0e          	cmp    rax,0xe
  4014b0:	48 89 e5             	mov    rbp,rsp
  4014b3:	76 1b                	jbe    4014d0 <deregister_tm_clones+0x30>
  4014b5:	b8 00 00 00 00       	mov    eax,0x0
  4014ba:	48 85 c0             	test   rax,rax
  4014bd:	74 11                	je     4014d0 <deregister_tm_clones+0x30>
  4014bf:	5d                   	pop    rbp
  4014c0:	bf e8 e1 60 00       	mov    edi,0x60e1e8
  4014c5:	ff e0                	jmp    rax
  4014c7:	66 0f 1f 84 00 00 00 	nop    WORD PTR [rax+rax*1+0x0]
  4014ce:	00 00 
  4014d0:	5d                   	pop    rbp
  4014d1:	c3                   	ret    
  4014d2:	0f 1f 40 00          	nop    DWORD PTR [rax+0x0]
  4014d6:	66 2e 0f 1f 84 00 00 	nop    WORD PTR cs:[rax+rax*1+0x0]
  4014dd:	00 00 00 

00000000004014e0 <register_tm_clones>:
  4014e0:	be e8 e1 60 00       	mov    esi,0x60e1e8
  4014e5:	55                   	push   rbp
  4014e6:	48 81 ee e8 e1 60 00 	sub    rsi,0x60e1e8
  4014ed:	48 c1 fe 03          	sar    rsi,0x3
  4014f1:	48 89 e5             	mov    rbp,rsp
  4014f4:	48 89 f0             	mov    rax,rsi
  4014f7:	48 c1 e8 3f          	shr    rax,0x3f
  4014fb:	48 01 c6             	add    rsi,rax
  4014fe:	48 d1 fe             	sar    rsi,1
  401501:	74 15                	je     401518 <register_tm_clones+0x38>
  401503:	b8 00 00 00 00       	mov    eax,0x0
  401508:	48 85 c0             	test   rax,rax
  40150b:	74 0b                	je     401518 <register_tm_clones+0x38>
  40150d:	5d                   	pop    rbp
  40150e:	bf e8 e1 60 00       	mov    edi,0x60e1e8
  401513:	ff e0                	jmp    rax
  401515:	0f 1f 00             	nop    DWORD PTR [rax]
  401518:	5d                   	pop    rbp
  401519:	c3                   	ret    
  40151a:	66 0f 1f 44 00 00    	nop    WORD PTR [rax+rax*1+0x0]

0000000000401520 <__do_global_dtors_aux>:
  401520:	80 3d e1 cc 20 00 00 	cmp    BYTE PTR [rip+0x20cce1],0x0        # 60e208 <completed.7594>
  401527:	75 11                	jne    40153a <__do_global_dtors_aux+0x1a>
  401529:	55                   	push   rbp
  40152a:	48 89 e5             	mov    rbp,rsp
  40152d:	e8 6e ff ff ff       	call   4014a0 <deregister_tm_clones>
  401532:	5d                   	pop    rbp
  401533:	c6 05 ce cc 20 00 01 	mov    BYTE PTR [rip+0x20ccce],0x1        # 60e208 <completed.7594>
  40153a:	f3 c3                	repz ret 
  40153c:	0f 1f 40 00          	nop    DWORD PTR [rax+0x0]

0000000000401540 <frame_dummy>:
  401540:	bf c0 dd 60 00       	mov    edi,0x60ddc0
  401545:	48 83 3f 00          	cmp    QWORD PTR [rdi],0x0
  401549:	75 05                	jne    401550 <frame_dummy+0x10>
  40154b:	eb 93                	jmp    4014e0 <register_tm_clones>
  40154d:	0f 1f 00             	nop    DWORD PTR [rax]
  401550:	b8 00 00 00 00       	mov    eax,0x0
  401555:	48 85 c0             	test   rax,rax
  401558:	74 f1                	je     40154b <frame_dummy+0xb>
  40155a:	55                   	push   rbp
  40155b:	48 89 e5             	mov    rbp,rsp
  40155e:	ff d0                	call   rax
  401560:	5d                   	pop    rbp
  401561:	e9 7a ff ff ff       	jmp    4014e0 <register_tm_clones>
  401566:	66 2e 0f 1f 84 00 00 	nop    WORD PTR cs:[rax+rax*1+0x0]
  40156d:	00 00 00 

0000000000401570 <main>:
  401570:	48 83 ec 58          	sub    rsp,0x58
  401574:	48 8d 7c 24 0f       	lea    rdi,[rsp+0xf]
  401579:	48 8d 74 24 10       	lea    rsi,[rsp+0x10]
  40157e:	e8 6d 00 00 00       	call   4015f0 <effective_type_check>
  401583:	31 c0                	xor    eax,eax
  401585:	48 83 c4 58          	add    rsp,0x58
  401589:	c3                   	ret    
  40158a:	66 0f 1f 44 00 00    	nop    WORD PTR [rax+rax*1+0x0]

0000000000401590 <effective_bounds_narrow>:
  401590:	55                   	push   rbp
  401591:	48 89 e5             	mov    rbp,rsp
  401594:	0f 29 45 f0          	movaps XMMWORD PTR [rbp-0x10],xmm0
  401598:	0f 29 4d e0          	movaps XMMWORD PTR [rbp-0x20],xmm1
  40159c:	0f 28 45 f0          	movaps xmm0,XMMWORD PTR [rbp-0x10]
  4015a0:	0f 28 4d e0          	movaps xmm1,XMMWORD PTR [rbp-0x20]
  4015a4:	66 0f 38 37 c1       	pcmpgtq xmm0,xmm1
  4015a9:	0f 29 45 d0          	movaps XMMWORD PTR [rbp-0x30],xmm0
  4015ad:	48 b8 10 af 40 00 00 	movabs rax,0x40af10
  4015b4:	00 00 00 
  4015b7:	0f 28 00             	movaps xmm0,XMMWORD PTR [rax]
  4015ba:	66 0f ef 45 d0       	pxor   xmm0,XMMWORD PTR [rbp-0x30]
  4015bf:	66 0f 7f 45 d0       	movdqa XMMWORD PTR [rbp-0x30],xmm0
  4015c4:	66 0f 6f 45 f0       	movdqa xmm0,XMMWORD PTR [rbp-0x10]
  4015c9:	66 0f 6f 4d e0       	movdqa xmm1,XMMWORD PTR [rbp-0x20]
  4015ce:	66 0f 6f 55 d0       	movdqa xmm2,XMMWORD PTR [rbp-0x30]
  4015d3:	0f 29 45 b0          	movaps XMMWORD PTR [rbp-0x50],xmm0
  4015d7:	0f 28 c2             	movaps xmm0,xmm2
  4015da:	0f 28 55 b0          	movaps xmm2,XMMWORD PTR [rbp-0x50]
  4015de:	66 0f 38 10 d1       	pblendvb xmm2,xmm1,xmm0
  4015e3:	66 0f 7f 55 c0       	movdqa XMMWORD PTR [rbp-0x40],xmm2
  4015e8:	66 0f 6f 45 c0       	movdqa xmm0,XMMWORD PTR [rbp-0x40]
  4015ed:	5d                   	pop    rbp
  4015ee:	c3                   	ret    
  4015ef:	90                   	nop

00000000004015f0 <effective_type_check>:
  4015f0:	55                   	push   rbp
  4015f1:	48 89 e5             	mov    rbp,rsp
  4015f4:	48 81 ec 60 01 00 00 	sub    rsp,0x160
  4015fb:	48 89 7d 88          	mov    QWORD PTR [rbp-0x78],rdi
  4015ff:	48 89 75 80          	mov    QWORD PTR [rbp-0x80],rsi
  401603:	48 8b 75 88          	mov    rsi,QWORD PTR [rbp-0x78]
  401607:	48 89 75 a0          	mov    QWORD PTR [rbp-0x60],rsi
  40160b:	48 8b 75 a0          	mov    rsi,QWORD PTR [rbp-0x60]
  40160f:	48 c1 ee 24          	shr    rsi,0x24
  401613:	48 89 b5 78 ff ff ff 	mov    QWORD PTR [rbp-0x88],rsi
  40161a:	48 83 bd 78 ff ff ff 	cmp    QWORD PTR [rbp-0x88],0x7f
  401621:	7f 
  401622:	0f 87 19 00 00 00    	ja     401641 <effective_type_check+0x51>
  401628:	b8 00 00 30 00       	mov    eax,0x300000
  40162d:	89 c1                	mov    ecx,eax
  40162f:	48 8b 95 78 ff ff ff 	mov    rdx,QWORD PTR [rbp-0x88]
  401636:	48 83 3c d1 00       	cmp    QWORD PTR [rcx+rdx*8],0x0
  40163b:	0f 85 40 00 00 00    	jne    401681 <effective_type_check+0x91>
  401641:	f3 0f 7e 45 88       	movq   xmm0,QWORD PTR [rbp-0x78]
  401646:	66 0f 70 c0 44       	pshufd xmm0,xmm0,0x44
  40164b:	0f 29 85 60 ff ff ff 	movaps XMMWORD PTR [rbp-0xa0],xmm0
  401652:	48 b8 00 af 40 00 00 	movabs rax,0x40af00
  401659:	00 00 00 
  40165c:	0f 28 00             	movaps xmm0,XMMWORD PTR [rax]
  40165f:	66 0f d4 85 60 ff ff 	paddq  xmm0,XMMWORD PTR [rbp-0xa0]
  401666:	ff 
  401667:	66 0f 7f 85 60 ff ff 	movdqa XMMWORD PTR [rbp-0xa0],xmm0
  40166e:	ff 
  40166f:	66 0f 6f 85 60 ff ff 	movdqa xmm0,XMMWORD PTR [rbp-0xa0]
  401676:	ff 
  401677:	66 0f 7f 45 90       	movdqa XMMWORD PTR [rbp-0x70],xmm0
  40167c:	e9 b1 05 00 00       	jmp    401c32 <effective_type_check+0x642>
  401681:	48 8b 45 88          	mov    rax,QWORD PTR [rbp-0x78]
  401685:	48 89 45 b8          	mov    QWORD PTR [rbp-0x48],rax
  401689:	48 8b 45 b8          	mov    rax,QWORD PTR [rbp-0x48]
  40168d:	48 89 45 c0          	mov    QWORD PTR [rbp-0x40],rax
  401691:	48 8b 45 c0          	mov    rax,QWORD PTR [rbp-0x40]
  401695:	48 c1 e8 24          	shr    rax,0x24
  401699:	48 89 45 b0          	mov    QWORD PTR [rbp-0x50],rax
  40169d:	48 8b 45 b8          	mov    rax,QWORD PTR [rbp-0x48]
  4016a1:	48 89 45 f0          	mov    QWORD PTR [rbp-0x10],rax
  4016a5:	48 8b 45 f0          	mov    rax,QWORD PTR [rbp-0x10]
  4016a9:	48 89 45 f8          	mov    QWORD PTR [rbp-0x8],rax
  4016ad:	48 8b 45 f8          	mov    rax,QWORD PTR [rbp-0x8]
  4016b1:	48 c1 e8 24          	shr    rax,0x24
  4016b5:	48 89 45 e8          	mov    QWORD PTR [rbp-0x18],rax
  4016b9:	48 8b 45 e8          	mov    rax,QWORD PTR [rbp-0x18]
  4016bd:	48 8b 04 c5 00 00 30 	mov    rax,QWORD PTR [rax*8+0x300000]
  4016c4:	00 
  4016c5:	48 8b 4d f0          	mov    rcx,QWORD PTR [rbp-0x10]
  4016c9:	48 f7 e1             	mul    rcx
  4016cc:	48 89 55 d8          	mov    QWORD PTR [rbp-0x28],rdx
  4016d0:	48 89 45 d0          	mov    QWORD PTR [rbp-0x30],rax
  4016d4:	48 8b 45 d8          	mov    rax,QWORD PTR [rbp-0x28]
  4016d8:	48 89 45 c8          	mov    QWORD PTR [rbp-0x38],rax
  4016dc:	48 8b 45 c8          	mov    rax,QWORD PTR [rbp-0x38]
  4016e0:	48 89 45 a8          	mov    QWORD PTR [rbp-0x58],rax
  4016e4:	48 8b 45 a8          	mov    rax,QWORD PTR [rbp-0x58]
  4016e8:	48 8b 4d b0          	mov    rcx,QWORD PTR [rbp-0x50]
  4016ec:	48 8b 0c cd 00 00 20 	mov    rcx,QWORD PTR [rcx*8+0x200000]
  4016f3:	00 
  4016f4:	48 0f af c1          	imul   rax,rcx
  4016f8:	48 89 85 58 ff ff ff 	mov    QWORD PTR [rbp-0xa8],rax
  4016ff:	48 8b 85 58 ff ff ff 	mov    rax,QWORD PTR [rbp-0xa8]
  401706:	48 89 85 50 ff ff ff 	mov    QWORD PTR [rbp-0xb0],rax
  40170d:	48 8b 85 50 ff ff ff 	mov    rax,QWORD PTR [rbp-0xb0]
  401714:	48 83 c0 10          	add    rax,0x10
  401718:	48 89 85 58 ff ff ff 	mov    QWORD PTR [rbp-0xa8],rax
  40171f:	48 8b 85 50 ff ff ff 	mov    rax,QWORD PTR [rbp-0xb0]
  401726:	48 8b 00             	mov    rax,QWORD PTR [rax]
  401729:	48 89 85 48 ff ff ff 	mov    QWORD PTR [rbp-0xb8],rax
  401730:	f3 0f 7e 85 58 ff ff 	movq   xmm0,QWORD PTR [rbp-0xa8]
  401737:	ff 
  401738:	66 0f 70 c0 44       	pshufd xmm0,xmm0,0x44
  40173d:	0f 29 85 30 ff ff ff 	movaps XMMWORD PTR [rbp-0xd0],xmm0
  401744:	48 8b 85 50 ff ff ff 	mov    rax,QWORD PTR [rbp-0xb0]
  40174b:	f3 0f 7e 40 08       	movq   xmm0,QWORD PTR [rax+0x8]
  401750:	66 0f 73 f8 08       	pslldq xmm0,0x8
  401755:	66 0f 7f 85 20 ff ff 	movdqa XMMWORD PTR [rbp-0xe0],xmm0
  40175c:	ff 
  40175d:	66 0f 6f 85 30 ff ff 	movdqa xmm0,XMMWORD PTR [rbp-0xd0]
  401764:	ff 
  401765:	66 0f d4 85 20 ff ff 	paddq  xmm0,XMMWORD PTR [rbp-0xe0]
  40176c:	ff 
  40176d:	66 0f 7f 85 10 ff ff 	movdqa XMMWORD PTR [rbp-0xf0],xmm0
  401774:	ff 
  401775:	48 83 bd 48 ff ff ff 	cmp    QWORD PTR [rbp-0xb8],0x0
  40177c:	00 
  40177d:	40 0f 94 c6          	sete   sil
  401781:	40 80 e6 01          	and    sil,0x1
  401785:	40 0f b6 fe          	movzx  edi,sil
  401789:	48 63 c7             	movsxd rax,edi
  40178c:	48 83 f8 00          	cmp    rax,0x0
  401790:	0f 84 11 00 00 00    	je     4017a7 <effective_type_check+0x1b7>
  401796:	48 b8 00 ae 40 00 00 	movabs rax,0x40ae00
  40179d:	00 00 00 
  4017a0:	48 89 85 48 ff ff ff 	mov    QWORD PTR [rbp-0xb8],rax
  4017a7:	48 8b 45 88          	mov    rax,QWORD PTR [rbp-0x78]
  4017ab:	48 8b 8d 58 ff ff ff 	mov    rcx,QWORD PTR [rbp-0xa8]
  4017b2:	48 29 c8             	sub    rax,rcx
  4017b5:	48 89 85 08 ff ff ff 	mov    QWORD PTR [rbp-0xf8],rax
  4017bc:	48 8b 85 08 ff ff ff 	mov    rax,QWORD PTR [rbp-0xf8]
  4017c3:	48 8b 8d 48 ff ff ff 	mov    rcx,QWORD PTR [rbp-0xb8]
  4017ca:	8b 51 10             	mov    edx,DWORD PTR [rcx+0x10]
  4017cd:	89 d1                	mov    ecx,edx
  4017cf:	48 39 c8             	cmp    rax,rcx
  4017d2:	0f 82 04 01 00 00    	jb     4018dc <effective_type_check+0x2ec>
  4017d8:	48 8b 85 48 ff ff ff 	mov    rax,QWORD PTR [rbp-0xb8]
  4017df:	8b 48 18             	mov    ecx,DWORD PTR [rax+0x18]
  4017e2:	89 c8                	mov    eax,ecx
  4017e4:	66 48 0f 6e c0       	movq   xmm0,rax
  4017e9:	0f 29 85 f0 fe ff ff 	movaps XMMWORD PTR [rbp-0x110],xmm0
  4017f0:	48 8b 85 48 ff ff ff 	mov    rax,QWORD PTR [rbp-0xb8]
  4017f7:	8b 48 10             	mov    ecx,DWORD PTR [rax+0x10]
  4017fa:	89 c8                	mov    eax,ecx
  4017fc:	48 8b 95 08 ff ff ff 	mov    rdx,QWORD PTR [rbp-0xf8]
  401803:	48 29 c2             	sub    rdx,rax
  401806:	48 89 95 08 ff ff ff 	mov    QWORD PTR [rbp-0xf8],rdx
  40180d:	48 8b 85 08 ff ff ff 	mov    rax,QWORD PTR [rbp-0xf8]
  401814:	48 89 85 e0 fe ff ff 	mov    QWORD PTR [rbp-0x120],rax
  40181b:	48 c7 85 e8 fe ff ff 	mov    QWORD PTR [rbp-0x118],0x0
  401822:	00 00 00 00 
  401826:	48 8b 85 48 ff ff ff 	mov    rax,QWORD PTR [rbp-0xb8]
  40182d:	48 8b 40 20          	mov    rax,QWORD PTR [rax+0x20]
  401831:	48 8b 95 e0 fe ff ff 	mov    rdx,QWORD PTR [rbp-0x120]
  401838:	48 8b b5 e8 fe ff ff 	mov    rsi,QWORD PTR [rbp-0x118]
  40183f:	48 0f af f0          	imul   rsi,rax
  401843:	48 89 85 a8 fe ff ff 	mov    QWORD PTR [rbp-0x158],rax
  40184a:	48 89 d0             	mov    rax,rdx
  40184d:	48 8b 95 a8 fe ff ff 	mov    rdx,QWORD PTR [rbp-0x158]
  401854:	48 f7 e2             	mul    rdx
  401857:	48 01 f2             	add    rdx,rsi
  40185a:	48 89 85 e0 fe ff ff 	mov    QWORD PTR [rbp-0x120],rax
  401861:	48 89 95 e8 fe ff ff 	mov    QWORD PTR [rbp-0x118],rdx
  401868:	48 8b 85 e0 fe ff ff 	mov    rax,QWORD PTR [rbp-0x120]
  40186f:	48 8b 95 e8 fe ff ff 	mov    rdx,QWORD PTR [rbp-0x118]
  401876:	48 0f a4 c2 01       	shld   rdx,rax,0x1
  40187b:	48 89 95 78 ff ff ff 	mov    QWORD PTR [rbp-0x88],rdx
  401882:	48 8b 85 78 ff ff ff 	mov    rax,QWORD PTR [rbp-0x88]
  401889:	48 8b 95 48 ff ff ff 	mov    rdx,QWORD PTR [rbp-0xb8]
  401890:	8b 4a 14             	mov    ecx,DWORD PTR [rdx+0x14]
  401893:	89 ca                	mov    edx,ecx
  401895:	48 0f af c2          	imul   rax,rdx
  401899:	48 8b 95 08 ff ff ff 	mov    rdx,QWORD PTR [rbp-0xf8]
  4018a0:	48 29 c2             	sub    rdx,rax
  4018a3:	48 89 95 08 ff ff ff 	mov    QWORD PTR [rbp-0xf8],rdx
  4018aa:	66 0f 6f 85 f0 fe ff 	movdqa xmm0,XMMWORD PTR [rbp-0x110]
  4018b1:	ff 
  4018b2:	66 0f d4 85 10 ff ff 	paddq  xmm0,XMMWORD PTR [rbp-0xf0]
  4018b9:	ff 
  4018ba:	66 0f 7f 85 10 ff ff 	movdqa XMMWORD PTR [rbp-0xf0],xmm0
  4018c1:	ff 
  4018c2:	48 8b 85 48 ff ff ff 	mov    rax,QWORD PTR [rbp-0xb8]
  4018c9:	8b 48 18             	mov    ecx,DWORD PTR [rax+0x18]
  4018cc:	89 c8                	mov    eax,ecx
  4018ce:	48 03 85 08 ff ff ff 	add    rax,QWORD PTR [rbp-0xf8]
  4018d5:	48 89 85 08 ff ff ff 	mov    QWORD PTR [rbp-0xf8],rax
  4018dc:	48 8b 85 48 ff ff ff 	mov    rax,QWORD PTR [rbp-0xb8]
  4018e3:	48 8b 00             	mov    rax,QWORD PTR [rax]
  4018e6:	48 8b 4d 80          	mov    rcx,QWORD PTR [rbp-0x80]
  4018ea:	48 33 01             	xor    rax,QWORD PTR [rcx]
  4018ed:	48 0b 85 08 ff ff ff 	or     rax,QWORD PTR [rbp-0xf8]
  4018f4:	48 83 f8 00          	cmp    rax,0x0
  4018f8:	0f 94 c2             	sete   dl
  4018fb:	80 e2 01             	and    dl,0x1
  4018fe:	0f b6 f2             	movzx  esi,dl
  401901:	48 63 c6             	movsxd rax,esi
  401904:	48 83 f8 00          	cmp    rax,0x0
  401908:	0f 84 12 00 00 00    	je     401920 <effective_type_check+0x330>
  40190e:	66 0f 6f 85 10 ff ff 	movdqa xmm0,XMMWORD PTR [rbp-0xf0]
  401915:	ff 
  401916:	66 0f 7f 45 90       	movdqa XMMWORD PTR [rbp-0x70],xmm0
  40191b:	e9 12 03 00 00       	jmp    401c32 <effective_type_check+0x642>
  401920:	f3 0f 7e 45 88       	movq   xmm0,QWORD PTR [rbp-0x78]
  401925:	66 0f 70 c0 44       	pshufd xmm0,xmm0,0x44
  40192a:	66 0f 7f 85 d0 fe ff 	movdqa XMMWORD PTR [rbp-0x130],xmm0
  401931:	ff 
  401932:	48 8b 45 80          	mov    rax,QWORD PTR [rbp-0x80]
  401936:	48 8b 00             	mov    rax,QWORD PTR [rax]
  401939:	48 8b 8d 08 ff ff ff 	mov    rcx,QWORD PTR [rbp-0xf8]
  401940:	f2 48 0f 38 f1 c1    	crc32  rax,rcx
  401946:	48 8b 8d 48 ff ff ff 	mov    rcx,QWORD PTR [rbp-0xb8]
  40194d:	48 8b 49 08          	mov    rcx,QWORD PTR [rcx+0x8]
  401951:	48 8b 55 80          	mov    rdx,QWORD PTR [rbp-0x80]
  401955:	48 33 0a             	xor    rcx,QWORD PTR [rdx]
  401958:	48 31 c8             	xor    rax,rcx
  40195b:	48 89 85 c8 fe ff ff 	mov    QWORD PTR [rbp-0x138],rax
  401962:	48 8b 85 c8 fe ff ff 	mov    rax,QWORD PTR [rbp-0x138]
  401969:	48 8b 8d 48 ff ff ff 	mov    rcx,QWORD PTR [rbp-0xb8]
  401970:	48 23 41 28          	and    rax,QWORD PTR [rcx+0x28]
  401974:	48 89 85 78 ff ff ff 	mov    QWORD PTR [rbp-0x88],rax
  40197b:	48 8b 85 48 ff ff ff 	mov    rax,QWORD PTR [rbp-0xb8]
  401982:	48 83 c0 40          	add    rax,0x40
  401986:	48 8b 8d 78 ff ff ff 	mov    rcx,QWORD PTR [rbp-0x88]
  40198d:	48 c1 e1 05          	shl    rcx,0x5
  401991:	48 01 c8             	add    rax,rcx
  401994:	48 89 85 c0 fe ff ff 	mov    QWORD PTR [rbp-0x140],rax
  40199b:	48 8b 85 c0 fe ff ff 	mov    rax,QWORD PTR [rbp-0x140]
  4019a2:	48 8b 00             	mov    rax,QWORD PTR [rax]
  4019a5:	48 3b 85 c8 fe ff ff 	cmp    rax,QWORD PTR [rbp-0x138]
  4019ac:	0f 85 50 00 00 00    	jne    401a02 <effective_type_check+0x412>
  4019b2:	e9 00 00 00 00       	jmp    4019b7 <effective_type_check+0x3c7>
  4019b7:	48 8b 85 c0 fe ff ff 	mov    rax,QWORD PTR [rbp-0x140]
  4019be:	f3 0f 6f 40 10       	movdqu xmm0,XMMWORD PTR [rax+0x10]
  4019c3:	66 0f 7f 85 b0 fe ff 	movdqa XMMWORD PTR [rbp-0x150],xmm0
  4019ca:	ff 
  4019cb:	66 0f 6f 85 d0 fe ff 	movdqa xmm0,XMMWORD PTR [rbp-0x130]
  4019d2:	ff 
  4019d3:	66 0f d4 85 b0 fe ff 	paddq  xmm0,XMMWORD PTR [rbp-0x150]
  4019da:	ff 
  4019db:	66 0f 6f 8d 10 ff ff 	movdqa xmm1,XMMWORD PTR [rbp-0xf0]
  4019e2:	ff 
  4019e3:	e8 a8 fb ff ff       	call   401590 <effective_bounds_narrow>
  4019e8:	66 0f 7f 85 10 ff ff 	movdqa XMMWORD PTR [rbp-0xf0],xmm0
  4019ef:	ff 
  4019f0:	66 0f 6f 85 10 ff ff 	movdqa xmm0,XMMWORD PTR [rbp-0xf0]
  4019f7:	ff 
  4019f8:	66 0f 7f 45 90       	movdqa XMMWORD PTR [rbp-0x70],xmm0
  4019fd:	e9 30 02 00 00       	jmp    401c32 <effective_type_check+0x642>
  401a02:	48 8b 85 c0 fe ff ff 	mov    rax,QWORD PTR [rbp-0x140]
  401a09:	48 83 38 ff          	cmp    QWORD PTR [rax],0xffffffffffffffff
  401a0d:	0f 84 60 00 00 00    	je     401a73 <effective_type_check+0x483>
  401a13:	48 8b 85 c0 fe ff ff 	mov    rax,QWORD PTR [rbp-0x140]
  401a1a:	48 83 c0 20          	add    rax,0x20
  401a1e:	48 89 85 c0 fe ff ff 	mov    QWORD PTR [rbp-0x140],rax
  401a25:	48 8b 85 c0 fe ff ff 	mov    rax,QWORD PTR [rbp-0x140]
  401a2c:	48 8b 00             	mov    rax,QWORD PTR [rax]
  401a2f:	48 3b 85 c8 fe ff ff 	cmp    rax,QWORD PTR [rbp-0x138]
  401a36:	0f 85 05 00 00 00    	jne    401a41 <effective_type_check+0x451>
  401a3c:	e9 76 ff ff ff       	jmp    4019b7 <effective_type_check+0x3c7>
  401a41:	48 8b 85 c0 fe ff ff 	mov    rax,QWORD PTR [rbp-0x140]
  401a48:	48 83 38 ff          	cmp    QWORD PTR [rax],0xffffffffffffffff
  401a4c:	0f 85 05 00 00 00    	jne    401a57 <effective_type_check+0x467>
  401a52:	e9 17 00 00 00       	jmp    401a6e <effective_type_check+0x47e>
  401a57:	48 8b 85 c0 fe ff ff 	mov    rax,QWORD PTR [rbp-0x140]
  401a5e:	48 83 c0 20          	add    rax,0x20
  401a62:	48 89 85 c0 fe ff ff 	mov    QWORD PTR [rbp-0x140],rax
  401a69:	e9 b7 ff ff ff       	jmp    401a25 <effective_type_check+0x435>
  401a6e:	e9 00 00 00 00       	jmp    401a73 <effective_type_check+0x483>
  401a73:	e9 00 00 00 00       	jmp    401a78 <effective_type_check+0x488>
  401a78:	48 8b 45 80          	mov    rax,QWORD PTR [rbp-0x80]
  401a7c:	48 8b 40 38          	mov    rax,QWORD PTR [rax+0x38]
  401a80:	48 8b 8d 08 ff ff ff 	mov    rcx,QWORD PTR [rbp-0xf8]
  401a87:	f2 48 0f 38 f1 c1    	crc32  rax,rcx
  401a8d:	48 8b 8d 48 ff ff ff 	mov    rcx,QWORD PTR [rbp-0xb8]
  401a94:	48 8b 49 08          	mov    rcx,QWORD PTR [rcx+0x8]
  401a98:	48 8b 55 80          	mov    rdx,QWORD PTR [rbp-0x80]
  401a9c:	48 33 4a 38          	xor    rcx,QWORD PTR [rdx+0x38]
  401aa0:	48 31 c8             	xor    rax,rcx
  401aa3:	48 89 85 c8 fe ff ff 	mov    QWORD PTR [rbp-0x138],rax
  401aaa:	48 8b 85 c8 fe ff ff 	mov    rax,QWORD PTR [rbp-0x138]
  401ab1:	48 8b 8d 48 ff ff ff 	mov    rcx,QWORD PTR [rbp-0xb8]
  401ab8:	48 23 41 28          	and    rax,QWORD PTR [rcx+0x28]
  401abc:	48 89 85 78 ff ff ff 	mov    QWORD PTR [rbp-0x88],rax
  401ac3:	48 8b 85 48 ff ff ff 	mov    rax,QWORD PTR [rbp-0xb8]
  401aca:	48 83 c0 40          	add    rax,0x40
  401ace:	48 8b 8d 78 ff ff ff 	mov    rcx,QWORD PTR [rbp-0x88]
  401ad5:	48 c1 e1 05          	shl    rcx,0x5
  401ad9:	48 01 c8             	add    rax,rcx
  401adc:	48 89 85 c0 fe ff ff 	mov    QWORD PTR [rbp-0x140],rax
  401ae3:	48 8b 85 c0 fe ff ff 	mov    rax,QWORD PTR [rbp-0x140]
  401aea:	48 8b 00             	mov    rax,QWORD PTR [rax]
  401aed:	48 3b 85 c8 fe ff ff 	cmp    rax,QWORD PTR [rbp-0x138]
  401af4:	0f 85 05 00 00 00    	jne    401aff <effective_type_check+0x50f>
  401afa:	e9 b8 fe ff ff       	jmp    4019b7 <effective_type_check+0x3c7>
  401aff:	48 8b 85 c0 fe ff ff 	mov    rax,QWORD PTR [rbp-0x140]
  401b06:	48 83 38 ff          	cmp    QWORD PTR [rax],0xffffffffffffffff
  401b0a:	0f 85 05 00 00 00    	jne    401b15 <effective_type_check+0x525>
  401b10:	e9 17 00 00 00       	jmp    401b2c <effective_type_check+0x53c>
  401b15:	48 8b 85 c0 fe ff ff 	mov    rax,QWORD PTR [rbp-0x140]
  401b1c:	48 83 c0 20          	add    rax,0x20
  401b20:	48 89 85 c0 fe ff ff 	mov    QWORD PTR [rbp-0x140],rax
  401b27:	e9 b7 ff ff ff       	jmp    401ae3 <effective_type_check+0x4f3>
  401b2c:	48 b8 80 ae 40 00 00 	movabs rax,0x40ae80
  401b33:	00 00 00 
  401b36:	48 8b 00             	mov    rax,QWORD PTR [rax]
  401b39:	48 8b 8d 08 ff ff ff 	mov    rcx,QWORD PTR [rbp-0xf8]
  401b40:	48 89 c2             	mov    rdx,rax
  401b43:	f2 48 0f 38 f1 d1    	crc32  rdx,rcx
  401b49:	48 8b 8d 48 ff ff ff 	mov    rcx,QWORD PTR [rbp-0xb8]
  401b50:	48 8b 49 08          	mov    rcx,QWORD PTR [rcx+0x8]
  401b54:	48 31 c1             	xor    rcx,rax
  401b57:	48 31 ca             	xor    rdx,rcx
  401b5a:	48 89 95 c8 fe ff ff 	mov    QWORD PTR [rbp-0x138],rdx
  401b61:	48 8b 85 c8 fe ff ff 	mov    rax,QWORD PTR [rbp-0x138]
  401b68:	48 8b 8d 48 ff ff ff 	mov    rcx,QWORD PTR [rbp-0xb8]
  401b6f:	48 23 41 28          	and    rax,QWORD PTR [rcx+0x28]
  401b73:	48 89 85 78 ff ff ff 	mov    QWORD PTR [rbp-0x88],rax
  401b7a:	48 8b 85 48 ff ff ff 	mov    rax,QWORD PTR [rbp-0xb8]
  401b81:	48 83 c0 40          	add    rax,0x40
  401b85:	48 8b 8d 78 ff ff ff 	mov    rcx,QWORD PTR [rbp-0x88]
  401b8c:	48 c1 e1 05          	shl    rcx,0x5
  401b90:	48 01 c8             	add    rax,rcx
  401b93:	48 89 85 c0 fe ff ff 	mov    QWORD PTR [rbp-0x140],rax
  401b9a:	48 8b 85 c0 fe ff ff 	mov    rax,QWORD PTR [rbp-0x140]
  401ba1:	48 8b 00             	mov    rax,QWORD PTR [rax]
  401ba4:	48 3b 85 c8 fe ff ff 	cmp    rax,QWORD PTR [rbp-0x138]
  401bab:	0f 85 05 00 00 00    	jne    401bb6 <effective_type_check+0x5c6>
  401bb1:	e9 01 fe ff ff       	jmp    4019b7 <effective_type_check+0x3c7>
  401bb6:	48 8b 85 c0 fe ff ff 	mov    rax,QWORD PTR [rbp-0x140]
  401bbd:	48 83 38 ff          	cmp    QWORD PTR [rax],0xffffffffffffffff
  401bc1:	0f 85 05 00 00 00    	jne    401bcc <effective_type_check+0x5dc>
  401bc7:	e9 17 00 00 00       	jmp    401be3 <effective_type_check+0x5f3>
  401bcc:	48 8b 85 c0 fe ff ff 	mov    rax,QWORD PTR [rbp-0x140]
  401bd3:	48 83 c0 20          	add    rax,0x20
  401bd7:	48 89 85 c0 fe ff ff 	mov    QWORD PTR [rbp-0x140],rax
  401bde:	e9 b7 ff ff ff       	jmp    401b9a <effective_type_check+0x5aa>
  401be3:	48 8b 7d 80          	mov    rdi,QWORD PTR [rbp-0x80]
  401be7:	48 8b b5 48 ff ff ff 	mov    rsi,QWORD PTR [rbp-0xb8]
  401bee:	48 8b 95 d0 fe ff ff 	mov    rdx,QWORD PTR [rbp-0x130]
  401bf5:	48 8b 8d 08 ff ff ff 	mov    rcx,QWORD PTR [rbp-0xf8]
  401bfc:	4c 8b 45 08          	mov    r8,QWORD PTR [rbp+0x8]
  401c00:	e8 cb 49 00 00       	call   4065d0 <effective_type_error>
  401c05:	0f 28 85 d0 fe ff ff 	movaps xmm0,XMMWORD PTR [rbp-0x130]
  401c0c:	48 b9 00 af 40 00 00 	movabs rcx,0x40af00
  401c13:	00 00 00 
  401c16:	0f 28 09             	movaps xmm1,XMMWORD PTR [rcx]
  401c19:	66 0f d4 c1          	paddq  xmm0,xmm1
  401c1d:	66 0f 7f 85 10 ff ff 	movdqa XMMWORD PTR [rbp-0xf0],xmm0
  401c24:	ff 
  401c25:	66 0f 6f 85 10 ff ff 	movdqa xmm0,XMMWORD PTR [rbp-0xf0]
  401c2c:	ff 
  401c2d:	66 0f 7f 45 90       	movdqa XMMWORD PTR [rbp-0x70],xmm0
  401c32:	66 0f 6f 45 90       	movdqa xmm0,XMMWORD PTR [rbp-0x70]
  401c37:	48 81 c4 60 01 00 00 	add    rsp,0x160
  401c3e:	5d                   	pop    rbp
  401c3f:	c3                   	ret    

0000000000401c40 <effective_get_bounds>:
  401c40:	55                   	push   rbp
  401c41:	48 89 e5             	mov    rbp,rsp
  401c44:	48 81 ec e0 00 00 00 	sub    rsp,0xe0
  401c4b:	48 89 7d 88          	mov    QWORD PTR [rbp-0x78],rdi
  401c4f:	48 8b 7d 88          	mov    rdi,QWORD PTR [rbp-0x78]
  401c53:	48 89 7d a0          	mov    QWORD PTR [rbp-0x60],rdi
  401c57:	48 8b 7d a0          	mov    rdi,QWORD PTR [rbp-0x60]
  401c5b:	48 c1 ef 24          	shr    rdi,0x24
  401c5f:	48 89 7d 80          	mov    QWORD PTR [rbp-0x80],rdi
  401c63:	48 83 7d 80 7f       	cmp    QWORD PTR [rbp-0x80],0x7f
  401c68:	0f 87 16 00 00 00    	ja     401c84 <effective_get_bounds+0x44>
  401c6e:	b8 00 00 30 00       	mov    eax,0x300000
  401c73:	89 c1                	mov    ecx,eax
  401c75:	48 8b 55 80          	mov    rdx,QWORD PTR [rbp-0x80]
  401c79:	48 83 3c d1 00       	cmp    QWORD PTR [rcx+rdx*8],0x0
  401c7e:	0f 85 33 00 00 00    	jne    401cb7 <effective_get_bounds+0x77>
  401c84:	f3 0f 7e 45 88       	movq   xmm0,QWORD PTR [rbp-0x78]
  401c89:	66 0f 70 c0 44       	pshufd xmm0,xmm0,0x44
  401c8e:	0f 29 85 70 ff ff ff 	movaps XMMWORD PTR [rbp-0x90],xmm0
  401c95:	0f 28 85 70 ff ff ff 	movaps xmm0,XMMWORD PTR [rbp-0x90]
  401c9c:	48 b8 00 af 40 00 00 	movabs rax,0x40af00
  401ca3:	00 00 00 
  401ca6:	0f 28 08             	movaps xmm1,XMMWORD PTR [rax]
  401ca9:	66 0f d4 c1          	paddq  xmm0,xmm1
  401cad:	66 0f 7f 45 90       	movdqa XMMWORD PTR [rbp-0x70],xmm0
  401cb2:	e9 98 01 00 00       	jmp    401e4f <effective_get_bounds+0x20f>
  401cb7:	48 8b 45 88          	mov    rax,QWORD PTR [rbp-0x78]
  401cbb:	48 89 45 b8          	mov    QWORD PTR [rbp-0x48],rax
  401cbf:	48 8b 45 b8          	mov    rax,QWORD PTR [rbp-0x48]
  401cc3:	48 89 45 c0          	mov    QWORD PTR [rbp-0x40],rax
  401cc7:	48 8b 45 c0          	mov    rax,QWORD PTR [rbp-0x40]
  401ccb:	48 c1 e8 24          	shr    rax,0x24
  401ccf:	48 89 45 b0          	mov    QWORD PTR [rbp-0x50],rax
  401cd3:	48 8b 45 b8          	mov    rax,QWORD PTR [rbp-0x48]
  401cd7:	48 89 45 f0          	mov    QWORD PTR [rbp-0x10],rax
  401cdb:	48 8b 45 f0          	mov    rax,QWORD PTR [rbp-0x10]
  401cdf:	48 89 45 f8          	mov    QWORD PTR [rbp-0x8],rax
  401ce3:	48 8b 45 f8          	mov    rax,QWORD PTR [rbp-0x8]
  401ce7:	48 c1 e8 24          	shr    rax,0x24
  401ceb:	48 89 45 e8          	mov    QWORD PTR [rbp-0x18],rax
  401cef:	48 8b 45 e8          	mov    rax,QWORD PTR [rbp-0x18]
  401cf3:	48 8b 04 c5 00 00 30 	mov    rax,QWORD PTR [rax*8+0x300000]
  401cfa:	00 
  401cfb:	48 8b 4d f0          	mov    rcx,QWORD PTR [rbp-0x10]
  401cff:	48 f7 e1             	mul    rcx
  401d02:	48 89 55 d8          	mov    QWORD PTR [rbp-0x28],rdx
  401d06:	48 89 45 d0          	mov    QWORD PTR [rbp-0x30],rax
  401d0a:	48 8b 45 d8          	mov    rax,QWORD PTR [rbp-0x28]
  401d0e:	48 89 45 c8          	mov    QWORD PTR [rbp-0x38],rax
  401d12:	48 8b 45 c8          	mov    rax,QWORD PTR [rbp-0x38]
  401d16:	48 89 45 a8          	mov    QWORD PTR [rbp-0x58],rax
  401d1a:	48 8b 45 a8          	mov    rax,QWORD PTR [rbp-0x58]
  401d1e:	48 8b 4d b0          	mov    rcx,QWORD PTR [rbp-0x50]
  401d22:	48 8b 0c cd 00 00 20 	mov    rcx,QWORD PTR [rcx*8+0x200000]
  401d29:	00 
  401d2a:	48 0f af c1          	imul   rax,rcx
  401d2e:	48 89 85 68 ff ff ff 	mov    QWORD PTR [rbp-0x98],rax
  401d35:	48 8b 85 68 ff ff ff 	mov    rax,QWORD PTR [rbp-0x98]
  401d3c:	48 89 85 60 ff ff ff 	mov    QWORD PTR [rbp-0xa0],rax
  401d43:	48 8b 85 60 ff ff ff 	mov    rax,QWORD PTR [rbp-0xa0]
  401d4a:	48 83 c0 10          	add    rax,0x10
  401d4e:	48 89 85 68 ff ff ff 	mov    QWORD PTR [rbp-0x98],rax
  401d55:	f3 0f 7e 85 68 ff ff 	movq   xmm0,QWORD PTR [rbp-0x98]
  401d5c:	ff 
  401d5d:	66 0f 70 c0 44       	pshufd xmm0,xmm0,0x44
  401d62:	66 0f 7f 85 50 ff ff 	movdqa XMMWORD PTR [rbp-0xb0],xmm0
  401d69:	ff 
  401d6a:	48 8b 85 60 ff ff ff 	mov    rax,QWORD PTR [rbp-0xa0]
  401d71:	48 8b 00             	mov    rax,QWORD PTR [rax]
  401d74:	48 89 85 48 ff ff ff 	mov    QWORD PTR [rbp-0xb8],rax
  401d7b:	48 83 bd 48 ff ff ff 	cmp    QWORD PTR [rbp-0xb8],0x0
  401d82:	00 
  401d83:	40 0f 94 c6          	sete   sil
  401d87:	40 80 e6 01          	and    sil,0x1
  401d8b:	40 0f b6 fe          	movzx  edi,sil
  401d8f:	48 63 c7             	movsxd rax,edi
  401d92:	48 83 f8 00          	cmp    rax,0x0
  401d96:	0f 84 63 00 00 00    	je     401dff <effective_get_bounds+0x1bf>
  401d9c:	48 8b 45 88          	mov    rax,QWORD PTR [rbp-0x78]
  401da0:	48 8b 8d 68 ff ff ff 	mov    rcx,QWORD PTR [rbp-0x98]
  401da7:	48 29 c8             	sub    rax,rcx
  401daa:	48 83 c0 f0          	add    rax,0xfffffffffffffff0
  401dae:	48 89 85 40 ff ff ff 	mov    QWORD PTR [rbp-0xc0],rax
  401db5:	48 8b 55 88          	mov    rdx,QWORD PTR [rbp-0x78]
  401db9:	48 8b 8d 40 ff ff ff 	mov    rcx,QWORD PTR [rbp-0xc0]
  401dc0:	4c 8b 45 08          	mov    r8,QWORD PTR [rbp+0x8]
  401dc4:	48 bf 80 ae 40 00 00 	movabs rdi,0x40ae80
  401dcb:	00 00 00 
  401dce:	48 be 00 ae 40 00 00 	movabs rsi,0x40ae00
  401dd5:	00 00 00 
  401dd8:	e8 f3 47 00 00       	call   4065d0 <effective_type_error>
  401ddd:	0f 28 85 50 ff ff ff 	movaps xmm0,XMMWORD PTR [rbp-0xb0]
  401de4:	48 b8 00 af 40 00 00 	movabs rax,0x40af00
  401deb:	00 00 00 
  401dee:	0f 28 08             	movaps xmm1,XMMWORD PTR [rax]
  401df1:	66 0f d4 c1          	paddq  xmm0,xmm1
  401df5:	66 0f 7f 45 90       	movdqa XMMWORD PTR [rbp-0x70],xmm0
  401dfa:	e9 50 00 00 00       	jmp    401e4f <effective_get_bounds+0x20f>
  401dff:	48 8b 85 60 ff ff ff 	mov    rax,QWORD PTR [rbp-0xa0]
  401e06:	48 83 c0 10          	add    rax,0x10
  401e0a:	48 89 85 68 ff ff ff 	mov    QWORD PTR [rbp-0x98],rax
  401e11:	48 8b 85 60 ff ff ff 	mov    rax,QWORD PTR [rbp-0xa0]
  401e18:	f3 0f 7e 40 08       	movq   xmm0,QWORD PTR [rax+0x8]
  401e1d:	66 0f 73 f8 08       	pslldq xmm0,0x8
  401e22:	66 0f 7f 85 30 ff ff 	movdqa XMMWORD PTR [rbp-0xd0],xmm0
  401e29:	ff 
  401e2a:	66 0f 6f 85 50 ff ff 	movdqa xmm0,XMMWORD PTR [rbp-0xb0]
  401e31:	ff 
  401e32:	66 0f d4 85 30 ff ff 	paddq  xmm0,XMMWORD PTR [rbp-0xd0]
  401e39:	ff 
  401e3a:	66 0f 7f 85 20 ff ff 	movdqa XMMWORD PTR [rbp-0xe0],xmm0
  401e41:	ff 
  401e42:	66 0f 6f 85 20 ff ff 	movdqa xmm0,XMMWORD PTR [rbp-0xe0]
  401e49:	ff 
  401e4a:	66 0f 7f 45 90       	movdqa XMMWORD PTR [rbp-0x70],xmm0
  401e4f:	66 0f 6f 45 90       	movdqa xmm0,XMMWORD PTR [rbp-0x70]
  401e54:	48 81 c4 e0 00 00 00 	add    rsp,0xe0
  401e5b:	5d                   	pop    rbp
  401e5c:	c3                   	ret    
  401e5d:	0f 1f 00             	nop    DWORD PTR [rax]

0000000000401e60 <effective_bounds_check>:
  401e60:	55                   	push   rbp
  401e61:	48 89 e5             	mov    rbp,rsp
  401e64:	48 81 ec 80 00 00 00 	sub    rsp,0x80
  401e6b:	0f 29 45 f0          	movaps XMMWORD PTR [rbp-0x10],xmm0
  401e6f:	48 89 7d e8          	mov    QWORD PTR [rbp-0x18],rdi
  401e73:	48 89 75 e0          	mov    QWORD PTR [rbp-0x20],rsi
  401e77:	48 89 55 d8          	mov    QWORD PTR [rbp-0x28],rdx
  401e7b:	f3 0f 7e 45 e8       	movq   xmm0,QWORD PTR [rbp-0x18]
  401e80:	66 0f 70 c0 44       	pshufd xmm0,xmm0,0x44
  401e85:	0f 29 45 c0          	movaps XMMWORD PTR [rbp-0x40],xmm0
  401e89:	48 8b 55 e0          	mov    rdx,QWORD PTR [rbp-0x20]
  401e8d:	48 ff c2             	inc    rdx
  401e90:	66 48 0f 6e c2       	movq   xmm0,rdx
  401e95:	f3 0f 7e 4d d8       	movq   xmm1,QWORD PTR [rbp-0x28]
  401e9a:	66 0f 6c c1          	punpcklqdq xmm0,xmm1
  401e9e:	0f 29 45 b0          	movaps XMMWORD PTR [rbp-0x50],xmm0
  401ea2:	0f 28 45 f0          	movaps xmm0,XMMWORD PTR [rbp-0x10]
  401ea6:	0f 28 4d b0          	movaps xmm1,XMMWORD PTR [rbp-0x50]
  401eaa:	66 0f fb c1          	psubq  xmm0,xmm1
  401eae:	0f 29 45 a0          	movaps XMMWORD PTR [rbp-0x60],xmm0
  401eb2:	0f 28 45 c0          	movaps xmm0,XMMWORD PTR [rbp-0x40]
  401eb6:	0f 28 4d a0          	movaps xmm1,XMMWORD PTR [rbp-0x60]
  401eba:	66 0f 38 37 c1       	pcmpgtq xmm0,xmm1
  401ebf:	66 0f 7f 45 90       	movdqa XMMWORD PTR [rbp-0x70],xmm0
  401ec4:	66 0f 6f 45 90       	movdqa xmm0,XMMWORD PTR [rbp-0x70]
  401ec9:	66 0f d7 c0          	pmovmskb eax,xmm0
  401ecd:	89 45 8c             	mov    DWORD PTR [rbp-0x74],eax
  401ed0:	81 7d 8c ff 00 00 00 	cmp    DWORD PTR [rbp-0x74],0xff
  401ed7:	0f 95 c1             	setne  cl
  401eda:	80 e1 01             	and    cl,0x1
  401edd:	0f b6 c1             	movzx  eax,cl
  401ee0:	48 63 d0             	movsxd rdx,eax
  401ee3:	48 83 fa 00          	cmp    rdx,0x0
  401ee7:	0f 84 2d 00 00 00    	je     401f1a <effective_bounds_check+0xba>
  401eed:	0f 28 45 b0          	movaps xmm0,XMMWORD PTR [rbp-0x50]
  401ef1:	66 48 0f 3a 16 c0 01 	pextrq rax,xmm0,0x1
  401ef8:	66 48 0f 7e c1       	movq   rcx,xmm0
  401efd:	48 29 c8             	sub    rax,rcx
  401f00:	48 83 c0 01          	add    rax,0x1
  401f04:	48 89 45 80          	mov    QWORD PTR [rbp-0x80],rax
  401f08:	66 0f 6f 45 f0       	movdqa xmm0,XMMWORD PTR [rbp-0x10]
  401f0d:	48 8b 7d e8          	mov    rdi,QWORD PTR [rbp-0x18]
  401f11:	48 8b 75 80          	mov    rsi,QWORD PTR [rbp-0x80]
  401f15:	e8 f6 4c 00 00       	call   406c10 <effective_bounds_error>
  401f1a:	48 81 c4 80 00 00 00 	add    rsp,0x80
  401f21:	5d                   	pop    rbp
  401f22:	c3                   	ret    
  401f23:	66 2e 0f 1f 84 00 00 	nop    WORD PTR cs:[rax+rax*1+0x0]
  401f2a:	00 00 00 
  401f2d:	0f 1f 00             	nop    DWORD PTR [rax]

0000000000401f30 <lowfat_stack_pivot>:
  401f30:	48 89 e7             	mov    rdi,rsp
  401f33:	48 b8 30 5a 40 00 00 	movabs rax,0x405a30
  401f3a:	00 00 00 
  401f3d:	ff d0                	call   rax
  401f3f:	48 89 c4             	mov    rsp,rax
  401f42:	c3                   	ret    
  401f43:	66 66 66 66 2e 0f 1f 	data16 data16 data16 nop WORD PTR cs:[rax+rax*1+0x0]
  401f4a:	84 00 00 00 00 00 

0000000000401f50 <lowfat_color_escape_code>:
  401f50:	55                   	push   rbp
  401f51:	48 89 e5             	mov    rbp,rsp
  401f54:	48 83 ec 20          	sub    rsp,0x20
  401f58:	40 88 f0             	mov    al,sil
  401f5b:	48 89 7d f0          	mov    QWORD PTR [rbp-0x10],rdi
  401f5f:	24 01                	and    al,0x1
  401f61:	88 45 ef             	mov    BYTE PTR [rbp-0x11],al
  401f64:	e8 c7 f3 ff ff       	call   401330 <__errno_location@plt>
  401f69:	8b 30                	mov    esi,DWORD PTR [rax]
  401f6b:	89 75 e8             	mov    DWORD PTR [rbp-0x18],esi
  401f6e:	48 8b 7d f0          	mov    rdi,QWORD PTR [rbp-0x10]
  401f72:	e8 99 f1 ff ff       	call   401110 <fileno@plt>
  401f77:	89 c7                	mov    edi,eax
  401f79:	e8 12 f2 ff ff       	call   401190 <isatty@plt>
  401f7e:	89 45 e4             	mov    DWORD PTR [rbp-0x1c],eax
  401f81:	8b 45 e8             	mov    eax,DWORD PTR [rbp-0x18]
  401f84:	89 45 e0             	mov    DWORD PTR [rbp-0x20],eax
  401f87:	e8 a4 f3 ff ff       	call   401330 <__errno_location@plt>
  401f8c:	8b 75 e0             	mov    esi,DWORD PTR [rbp-0x20]
  401f8f:	89 30                	mov    DWORD PTR [rax],esi
  401f91:	83 7d e4 00          	cmp    DWORD PTR [rbp-0x1c],0x0
  401f95:	0f 85 13 00 00 00    	jne    401fae <lowfat_color_escape_code+0x5e>
  401f9b:	48 b8 6b aa 40 00 00 	movabs rax,0x40aa6b
  401fa2:	00 00 00 
  401fa5:	48 89 45 f8          	mov    QWORD PTR [rbp-0x8],rax
  401fa9:	e9 21 00 00 00       	jmp    401fcf <lowfat_color_escape_code+0x7f>
  401fae:	8a 45 ef             	mov    al,BYTE PTR [rbp-0x11]
  401fb1:	48 b9 a0 a5 40 00 00 	movabs rcx,0x40a5a0
  401fb8:	00 00 00 
  401fbb:	48 ba a6 a5 40 00 00 	movabs rdx,0x40a5a6
  401fc2:	00 00 00 
  401fc5:	a8 01                	test   al,0x1
  401fc7:	48 0f 45 d1          	cmovne rdx,rcx
  401fcb:	48 89 55 f8          	mov    QWORD PTR [rbp-0x8],rdx
  401fcf:	48 8b 45 f8          	mov    rax,QWORD PTR [rbp-0x8]
  401fd3:	48 83 c4 20          	add    rsp,0x20
  401fd7:	5d                   	pop    rbp
  401fd8:	c3                   	ret    
  401fd9:	0f 1f 80 00 00 00 00 	nop    DWORD PTR [rax+0x0]

0000000000401fe0 <lowfat_malloc_init>:
  401fe0:	55                   	push   rbp
  401fe1:	48 89 e5             	mov    rbp,rsp
  401fe4:	48 81 ec c0 00 00 00 	sub    rsp,0xc0
  401feb:	48 c7 45 80 00 00 00 	mov    QWORD PTR [rbp-0x80],0x0
  401ff2:	00 
  401ff3:	48 83 7d 80 3e       	cmp    QWORD PTR [rbp-0x80],0x3e
  401ff8:	0f 83 e0 01 00 00    	jae    4021de <lowfat_malloc_init+0x1fe>
  401ffe:	48 8b 45 80          	mov    rax,QWORD PTR [rbp-0x80]
  402002:	48 ff c0             	inc    rax
  402005:	48 89 85 78 ff ff ff 	mov    QWORD PTR [rbp-0x88],rax
  40200c:	48 8b bd 78 ff ff ff 	mov    rdi,QWORD PTR [rbp-0x88]
  402013:	e8 e8 01 00 00       	call   402200 <lowfat_region>
  402018:	48 89 85 70 ff ff ff 	mov    QWORD PTR [rbp-0x90],rax
  40201f:	b9 04 00 00 00       	mov    ecx,0x4
  402024:	89 ce                	mov    esi,ecx
  402026:	48 8d bd 6c ff ff ff 	lea    rdi,[rbp-0x94]
  40202d:	e8 ee 01 00 00       	call   402220 <lowfat_rand>
  402032:	48 8b 85 70 ff ff ff 	mov    rax,QWORD PTR [rbp-0x90]
  402039:	8b 8d 6c ff ff ff    	mov    ecx,DWORD PTR [rbp-0x94]
  40203f:	89 ce                	mov    esi,ecx
  402041:	48 89 c7             	mov    rdi,rax
  402044:	48 01 f7             	add    rdi,rsi
  402047:	48 89 45 98          	mov    QWORD PTR [rbp-0x68],rax
  40204b:	48 8b 45 98          	mov    rax,QWORD PTR [rbp-0x68]
  40204f:	48 89 45 a0          	mov    QWORD PTR [rbp-0x60],rax
  402053:	48 8b 45 a0          	mov    rax,QWORD PTR [rbp-0x60]
  402057:	48 c1 e8 24          	shr    rax,0x24
  40205b:	48 89 45 90          	mov    QWORD PTR [rbp-0x70],rax
  40205f:	48 8b 45 90          	mov    rax,QWORD PTR [rbp-0x70]
  402063:	48 8b 04 c5 00 00 20 	mov    rax,QWORD PTR [rax*8+0x200000]
  40206a:	00 
  40206b:	48 8d 84 38 00 10 00 	lea    rax,[rax+rdi*1+0x1000]
  402072:	00 
  402073:	48 89 45 b8          	mov    QWORD PTR [rbp-0x48],rax
  402077:	48 8b 45 b8          	mov    rax,QWORD PTR [rbp-0x48]
  40207b:	48 89 45 c0          	mov    QWORD PTR [rbp-0x40],rax
  40207f:	48 8b 45 c0          	mov    rax,QWORD PTR [rbp-0x40]
  402083:	48 c1 e8 24          	shr    rax,0x24
  402087:	48 89 45 b0          	mov    QWORD PTR [rbp-0x50],rax
  40208b:	48 8b 45 b8          	mov    rax,QWORD PTR [rbp-0x48]
  40208f:	48 89 45 f0          	mov    QWORD PTR [rbp-0x10],rax
  402093:	48 8b 45 f0          	mov    rax,QWORD PTR [rbp-0x10]
  402097:	48 89 45 f8          	mov    QWORD PTR [rbp-0x8],rax
  40209b:	48 8b 45 f8          	mov    rax,QWORD PTR [rbp-0x8]
  40209f:	48 c1 e8 24          	shr    rax,0x24
  4020a3:	48 89 45 e8          	mov    QWORD PTR [rbp-0x18],rax
  4020a7:	48 8b 45 e8          	mov    rax,QWORD PTR [rbp-0x18]
  4020ab:	48 8b 04 c5 00 00 30 	mov    rax,QWORD PTR [rax*8+0x300000]
  4020b2:	00 
  4020b3:	48 8b 75 f0          	mov    rsi,QWORD PTR [rbp-0x10]
  4020b7:	48 f7 e6             	mul    rsi
  4020ba:	48 89 55 d8          	mov    QWORD PTR [rbp-0x28],rdx
  4020be:	48 89 45 d0          	mov    QWORD PTR [rbp-0x30],rax
  4020c2:	48 8b 45 d8          	mov    rax,QWORD PTR [rbp-0x28]
  4020c6:	48 89 45 c8          	mov    QWORD PTR [rbp-0x38],rax
  4020ca:	48 8b 45 c8          	mov    rax,QWORD PTR [rbp-0x38]
  4020ce:	48 89 45 a8          	mov    QWORD PTR [rbp-0x58],rax
  4020d2:	48 8b 45 a8          	mov    rax,QWORD PTR [rbp-0x58]
  4020d6:	48 8b 55 b0          	mov    rdx,QWORD PTR [rbp-0x50]
  4020da:	48 8b 14 d5 00 00 20 	mov    rdx,QWORD PTR [rdx*8+0x200000]
  4020e1:	00 
  4020e2:	48 0f af c2          	imul   rax,rdx
  4020e6:	48 89 85 60 ff ff ff 	mov    QWORD PTR [rbp-0xa0],rax
  4020ed:	48 8b 85 78 ff ff ff 	mov    rax,QWORD PTR [rbp-0x88]
  4020f4:	48 8d 04 80          	lea    rax,[rax+rax*4]
  4020f8:	48 ba 50 e5 60 00 00 	movabs rdx,0x60e550
  4020ff:	00 00 00 
  402102:	48 8d 04 c2          	lea    rax,[rdx+rax*8]
  402106:	48 89 85 58 ff ff ff 	mov    QWORD PTR [rbp-0xa8],rax
  40210d:	48 8b bd 58 ff ff ff 	mov    rdi,QWORD PTR [rbp-0xa8]
  402114:	e8 c7 01 00 00       	call   4022e0 <lowfat_mutex_init>
  402119:	a8 01                	test   al,0x1
  40211b:	0f 85 09 00 00 00    	jne    40212a <lowfat_malloc_init+0x14a>
  402121:	c6 45 8f 00          	mov    BYTE PTR [rbp-0x71],0x0
  402125:	e9 b8 00 00 00       	jmp    4021e2 <lowfat_malloc_init+0x202>
  40212a:	48 b8 00 00 ff ff 07 	movabs rax,0x7ffff0000
  402131:	00 00 00 
  402134:	b9 01 00 00 00       	mov    ecx,0x1
  402139:	31 d2                	xor    edx,edx
  40213b:	89 d6                	mov    esi,edx
  40213d:	48 8b bd 58 ff ff ff 	mov    rdi,QWORD PTR [rbp-0xa8]
  402144:	48 c7 47 08 00 00 00 	mov    QWORD PTR [rdi+0x8],0x0
  40214b:	00 
  40214c:	48 8b bd 60 ff ff ff 	mov    rdi,QWORD PTR [rbp-0xa0]
  402153:	4c 8b 85 58 ff ff ff 	mov    r8,QWORD PTR [rbp-0xa8]
  40215a:	49 89 78 10          	mov    QWORD PTR [r8+0x10],rdi
  40215e:	48 03 85 70 ff ff ff 	add    rax,QWORD PTR [rbp-0x90]
  402165:	48 8b bd 58 ff ff ff 	mov    rdi,QWORD PTR [rbp-0xa8]
  40216c:	48 89 47 18          	mov    QWORD PTR [rdi+0x18],rax
  402170:	48 8b 85 60 ff ff ff 	mov    rax,QWORD PTR [rbp-0xa0]
  402177:	48 8b bd 60 ff ff ff 	mov    rdi,QWORD PTR [rbp-0xa0]
  40217e:	48 81 e7 ff 0f 00 00 	and    rdi,0xfff
  402185:	48 29 fe             	sub    rsi,rdi
  402188:	48 01 f0             	add    rax,rsi
  40218b:	48 8b b5 58 ff ff ff 	mov    rsi,QWORD PTR [rbp-0xa8]
  402192:	48 89 46 20          	mov    QWORD PTR [rsi+0x20],rax
  402196:	48 8b bd 70 ff ff ff 	mov    rdi,QWORD PTR [rbp-0x90]
  40219d:	48 be 00 00 ff ff 07 	movabs rsi,0x7ffff0000
  4021a4:	00 00 00 
  4021a7:	ba 01 00 00 00       	mov    edx,0x1
  4021ac:	89 95 54 ff ff ff    	mov    DWORD PTR [rbp-0xac],edx
  4021b2:	44 8b 8d 54 ff ff ff 	mov    r9d,DWORD PTR [rbp-0xac]
  4021b9:	89 8d 50 ff ff ff    	mov    DWORD PTR [rbp-0xb0],ecx
  4021bf:	44 89 c9             	mov    ecx,r9d
  4021c2:	e8 39 01 00 00       	call   402300 <lowfat_protect>
  4021c7:	88 85 4f ff ff ff    	mov    BYTE PTR [rbp-0xb1],al
  4021cd:	48 8b 45 80          	mov    rax,QWORD PTR [rbp-0x80]
  4021d1:	48 83 c0 01          	add    rax,0x1
  4021d5:	48 89 45 80          	mov    QWORD PTR [rbp-0x80],rax
  4021d9:	e9 15 fe ff ff       	jmp    401ff3 <lowfat_malloc_init+0x13>
  4021de:	c6 45 8f 01          	mov    BYTE PTR [rbp-0x71],0x1
  4021e2:	8a 45 8f             	mov    al,BYTE PTR [rbp-0x71]
  4021e5:	24 01                	and    al,0x1
  4021e7:	0f b6 c0             	movzx  eax,al
  4021ea:	48 81 c4 c0 00 00 00 	add    rsp,0xc0
  4021f1:	5d                   	pop    rbp
  4021f2:	c3                   	ret    
  4021f3:	66 66 66 66 2e 0f 1f 	data16 data16 data16 nop WORD PTR cs:[rax+rax*1+0x0]
  4021fa:	84 00 00 00 00 00 

0000000000402200 <lowfat_region>:
  402200:	55                   	push   rbp
  402201:	48 89 e5             	mov    rbp,rsp
  402204:	48 89 7d f8          	mov    QWORD PTR [rbp-0x8],rdi
  402208:	48 8b 7d f8          	mov    rdi,QWORD PTR [rbp-0x8]
  40220c:	48 c1 e7 24          	shl    rdi,0x24
  402210:	48 89 f8             	mov    rax,rdi
  402213:	5d                   	pop    rbp
  402214:	c3                   	ret    
  402215:	66 66 2e 0f 1f 84 00 	data16 nop WORD PTR cs:[rax+rax*1+0x0]
  40221c:	00 00 00 00 

0000000000402220 <lowfat_rand>:
  402220:	55                   	push   rbp
  402221:	48 89 e5             	mov    rbp,rsp
  402224:	48 83 ec 20          	sub    rsp,0x20
  402228:	48 89 7d f8          	mov    QWORD PTR [rbp-0x8],rdi
  40222c:	48 89 75 f0          	mov    QWORD PTR [rbp-0x10],rsi
  402230:	48 8b 75 f8          	mov    rsi,QWORD PTR [rbp-0x8]
  402234:	48 89 75 e8          	mov    QWORD PTR [rbp-0x18],rsi
  402238:	48 83 7d f0 00       	cmp    QWORD PTR [rbp-0x10],0x0
  40223d:	0f 86 91 00 00 00    	jbe    4022d4 <lowfat_rand+0xb4>
  402243:	48 b8 c0 e1 60 00 00 	movabs rax,0x60e1c0
  40224a:	00 00 00 
  40224d:	48 8b 00             	mov    rax,QWORD PTR [rax]
  402250:	48 3d 00 10 00 00    	cmp    rax,0x1000
  402256:	0f 82 23 00 00 00    	jb     40227f <lowfat_rand+0x5f>
  40225c:	48 b8 28 e2 60 00 00 	movabs rax,0x60e228
  402263:	00 00 00 
  402266:	48 8b 38             	mov    rdi,QWORD PTR [rax]
  402269:	e8 12 3d 00 00       	call   405f80 <lowfat_random_page>
  40226e:	48 b8 c0 e1 60 00 00 	movabs rax,0x60e1c0
  402275:	00 00 00 
  402278:	48 c7 00 00 00 00 00 	mov    QWORD PTR [rax],0x0
  40227f:	48 b8 28 e2 60 00 00 	movabs rax,0x60e228
  402286:	00 00 00 
  402289:	48 8b 08             	mov    rcx,QWORD PTR [rax]
  40228c:	48 ba c0 e1 60 00 00 	movabs rdx,0x60e1c0
  402293:	00 00 00 
  402296:	48 8b 32             	mov    rsi,QWORD PTR [rdx]
  402299:	40 8a 3c 31          	mov    dil,BYTE PTR [rcx+rsi*1]
  40229d:	48 8b 4d e8          	mov    rcx,QWORD PTR [rbp-0x18]
  4022a1:	40 88 39             	mov    BYTE PTR [rcx],dil
  4022a4:	48 8b 00             	mov    rax,QWORD PTR [rax]
  4022a7:	48 8b 0a             	mov    rcx,QWORD PTR [rdx]
  4022aa:	c6 04 08 00          	mov    BYTE PTR [rax+rcx*1],0x0
  4022ae:	48 8b 02             	mov    rax,QWORD PTR [rdx]
  4022b1:	48 ff c0             	inc    rax
  4022b4:	48 89 02             	mov    QWORD PTR [rdx],rax
  4022b7:	48 8b 45 f0          	mov    rax,QWORD PTR [rbp-0x10]
  4022bb:	48 83 c0 ff          	add    rax,0xffffffffffffffff
  4022bf:	48 89 45 f0          	mov    QWORD PTR [rbp-0x10],rax
  4022c3:	48 8b 45 e8          	mov    rax,QWORD PTR [rbp-0x18]
  4022c7:	48 83 c0 01          	add    rax,0x1
  4022cb:	48 89 45 e8          	mov    QWORD PTR [rbp-0x18],rax
  4022cf:	e9 64 ff ff ff       	jmp    402238 <lowfat_rand+0x18>
  4022d4:	48 83 c4 20          	add    rsp,0x20
  4022d8:	5d                   	pop    rbp
  4022d9:	c3                   	ret    
  4022da:	66 0f 1f 44 00 00    	nop    WORD PTR [rax+rax*1+0x0]

00000000004022e0 <lowfat_mutex_init>:
  4022e0:	55                   	push   rbp
  4022e1:	48 89 e5             	mov    rbp,rsp
  4022e4:	b0 01                	mov    al,0x1
  4022e6:	48 89 7d f8          	mov    QWORD PTR [rbp-0x8],rdi
  4022ea:	24 01                	and    al,0x1
  4022ec:	0f b6 c0             	movzx  eax,al
  4022ef:	5d                   	pop    rbp
  4022f0:	c3                   	ret    
  4022f1:	66 66 66 66 66 66 2e 	data16 data16 data16 data16 data16 nop WORD PTR cs:[rax+rax*1+0x0]
  4022f8:	0f 1f 84 00 00 00 00 
  4022ff:	00 

0000000000402300 <lowfat_protect>:
  402300:	55                   	push   rbp
  402301:	48 89 e5             	mov    rbp,rsp
  402304:	48 83 ec 20          	sub    rsp,0x20
  402308:	88 c8                	mov    al,cl
  40230a:	41 88 d0             	mov    r8b,dl
  40230d:	48 89 7d f0          	mov    QWORD PTR [rbp-0x10],rdi
  402311:	48 89 75 e8          	mov    QWORD PTR [rbp-0x18],rsi
  402315:	41 80 e0 01          	and    r8b,0x1
  402319:	44 88 45 e7          	mov    BYTE PTR [rbp-0x19],r8b
  40231d:	24 01                	and    al,0x1
  40231f:	88 45 e6             	mov    BYTE PTR [rbp-0x1a],al
  402322:	c7 45 e0 00 00 00 00 	mov    DWORD PTR [rbp-0x20],0x0
  402329:	f6 45 e7 01          	test   BYTE PTR [rbp-0x19],0x1
  40232d:	0f 84 09 00 00 00    	je     40233c <lowfat_protect+0x3c>
  402333:	8b 45 e0             	mov    eax,DWORD PTR [rbp-0x20]
  402336:	83 c8 01             	or     eax,0x1
  402339:	89 45 e0             	mov    DWORD PTR [rbp-0x20],eax
  40233c:	f6 45 e6 01          	test   BYTE PTR [rbp-0x1a],0x1
  402340:	0f 84 09 00 00 00    	je     40234f <lowfat_protect+0x4f>
  402346:	8b 45 e0             	mov    eax,DWORD PTR [rbp-0x20]
  402349:	83 c8 02             	or     eax,0x2
  40234c:	89 45 e0             	mov    DWORD PTR [rbp-0x20],eax
  40234f:	48 8b 7d f0          	mov    rdi,QWORD PTR [rbp-0x10]
  402353:	48 8b 75 e8          	mov    rsi,QWORD PTR [rbp-0x18]
  402357:	8b 55 e0             	mov    edx,DWORD PTR [rbp-0x20]
  40235a:	e8 a1 ed ff ff       	call   401100 <mprotect@plt>
  40235f:	83 f8 00             	cmp    eax,0x0
  402362:	0f 8d 09 00 00 00    	jge    402371 <lowfat_protect+0x71>
  402368:	c6 45 ff 00          	mov    BYTE PTR [rbp-0x1],0x0
  40236c:	e9 04 00 00 00       	jmp    402375 <lowfat_protect+0x75>
  402371:	c6 45 ff 01          	mov    BYTE PTR [rbp-0x1],0x1
  402375:	8a 45 ff             	mov    al,BYTE PTR [rbp-0x1]
  402378:	24 01                	and    al,0x1
  40237a:	0f b6 c0             	movzx  eax,al
  40237d:	48 83 c4 20          	add    rsp,0x20
  402381:	5d                   	pop    rbp
  402382:	c3                   	ret    
  402383:	66 66 66 66 2e 0f 1f 	data16 data16 data16 nop WORD PTR cs:[rax+rax*1+0x0]
  40238a:	84 00 00 00 00 00 

0000000000402390 <lowfat__Znam>:
  402390:	55                   	push   rbp
  402391:	48 89 e5             	mov    rbp,rsp
  402394:	48 83 ec 10          	sub    rsp,0x10
  402398:	48 89 7d f8          	mov    QWORD PTR [rbp-0x8],rdi
  40239c:	48 8b 7d f8          	mov    rdi,QWORD PTR [rbp-0x8]
  4023a0:	e8 1b 00 00 00       	call   4023c0 <lowfat_heap_select>
  4023a5:	48 89 45 f0          	mov    QWORD PTR [rbp-0x10],rax
  4023a9:	48 8b 7d f0          	mov    rdi,QWORD PTR [rbp-0x10]
  4023ad:	48 8b 75 f8          	mov    rsi,QWORD PTR [rbp-0x8]
  4023b1:	e8 7a 07 00 00       	call   402b30 <lowfat_malloc_index>
  4023b6:	48 83 c4 10          	add    rsp,0x10
  4023ba:	5d                   	pop    rbp
  4023bb:	c3                   	ret    
  4023bc:	0f 1f 40 00          	nop    DWORD PTR [rax+0x0]

00000000004023c0 <lowfat_heap_select>:
  4023c0:	55                   	push   rbp
  4023c1:	48 89 e5             	mov    rbp,rsp
  4023c4:	48 89 7d f0          	mov    QWORD PTR [rbp-0x10],rdi
  4023c8:	48 0f bd 7d f0       	bsr    rdi,QWORD PTR [rbp-0x10]
  4023cd:	48 83 f7 3f          	xor    rdi,0x3f
  4023d1:	89 f8                	mov    eax,edi
  4023d3:	83 e8 40             	sub    eax,0x40
  4023d6:	48 89 7d e8          	mov    QWORD PTR [rbp-0x18],rdi
  4023da:	89 45 e4             	mov    DWORD PTR [rbp-0x1c],eax
  4023dd:	0f 87 35 07 00 00    	ja     402b18 <lowfat_heap_select+0x758>
  4023e3:	48 b8 48 a3 40 00 00 	movabs rax,0x40a348
  4023ea:	00 00 00 
  4023ed:	48 8b 4d e8          	mov    rcx,QWORD PTR [rbp-0x18]
  4023f1:	48 8b 04 c8          	mov    rax,QWORD PTR [rax+rcx*8]
  4023f5:	ff e0                	jmp    rax
  4023f7:	48 83 7d f0 0f       	cmp    QWORD PTR [rbp-0x10],0xf
  4023fc:	0f 87 0d 00 00 00    	ja     40240f <lowfat_heap_select+0x4f>
  402402:	48 c7 45 f8 01 00 00 	mov    QWORD PTR [rbp-0x8],0x1
  402409:	00 
  40240a:	e9 11 07 00 00       	jmp    402b20 <lowfat_heap_select+0x760>
  40240f:	e9 00 00 00 00       	jmp    402414 <lowfat_heap_select+0x54>
  402414:	48 83 7d f0 1f       	cmp    QWORD PTR [rbp-0x10],0x1f
  402419:	0f 87 0d 00 00 00    	ja     40242c <lowfat_heap_select+0x6c>
  40241f:	48 c7 45 f8 02 00 00 	mov    QWORD PTR [rbp-0x8],0x2
  402426:	00 
  402427:	e9 f4 06 00 00       	jmp    402b20 <lowfat_heap_select+0x760>
  40242c:	48 83 7d f0 2f       	cmp    QWORD PTR [rbp-0x10],0x2f
  402431:	0f 87 0d 00 00 00    	ja     402444 <lowfat_heap_select+0x84>
  402437:	48 c7 45 f8 03 00 00 	mov    QWORD PTR [rbp-0x8],0x3
  40243e:	00 
  40243f:	e9 dc 06 00 00       	jmp    402b20 <lowfat_heap_select+0x760>
  402444:	e9 00 00 00 00       	jmp    402449 <lowfat_heap_select+0x89>
  402449:	48 83 7d f0 3f       	cmp    QWORD PTR [rbp-0x10],0x3f
  40244e:	0f 87 0d 00 00 00    	ja     402461 <lowfat_heap_select+0xa1>
  402454:	48 c7 45 f8 04 00 00 	mov    QWORD PTR [rbp-0x8],0x4
  40245b:	00 
  40245c:	e9 bf 06 00 00       	jmp    402b20 <lowfat_heap_select+0x760>
  402461:	48 83 7d f0 4f       	cmp    QWORD PTR [rbp-0x10],0x4f
  402466:	0f 87 0d 00 00 00    	ja     402479 <lowfat_heap_select+0xb9>
  40246c:	48 c7 45 f8 05 00 00 	mov    QWORD PTR [rbp-0x8],0x5
  402473:	00 
  402474:	e9 a7 06 00 00       	jmp    402b20 <lowfat_heap_select+0x760>
  402479:	48 83 7d f0 5f       	cmp    QWORD PTR [rbp-0x10],0x5f
  40247e:	0f 87 0d 00 00 00    	ja     402491 <lowfat_heap_select+0xd1>
  402484:	48 c7 45 f8 06 00 00 	mov    QWORD PTR [rbp-0x8],0x6
  40248b:	00 
  40248c:	e9 8f 06 00 00       	jmp    402b20 <lowfat_heap_select+0x760>
  402491:	48 83 7d f0 6f       	cmp    QWORD PTR [rbp-0x10],0x6f
  402496:	0f 87 0d 00 00 00    	ja     4024a9 <lowfat_heap_select+0xe9>
  40249c:	48 c7 45 f8 07 00 00 	mov    QWORD PTR [rbp-0x8],0x7
  4024a3:	00 
  4024a4:	e9 77 06 00 00       	jmp    402b20 <lowfat_heap_select+0x760>
  4024a9:	e9 00 00 00 00       	jmp    4024ae <lowfat_heap_select+0xee>
  4024ae:	48 83 7d f0 7f       	cmp    QWORD PTR [rbp-0x10],0x7f
  4024b3:	0f 87 0d 00 00 00    	ja     4024c6 <lowfat_heap_select+0x106>
  4024b9:	48 c7 45 f8 08 00 00 	mov    QWORD PTR [rbp-0x8],0x8
  4024c0:	00 
  4024c1:	e9 5a 06 00 00       	jmp    402b20 <lowfat_heap_select+0x760>
  4024c6:	48 81 7d f0 8f 00 00 	cmp    QWORD PTR [rbp-0x10],0x8f
  4024cd:	00 
  4024ce:	0f 87 0d 00 00 00    	ja     4024e1 <lowfat_heap_select+0x121>
  4024d4:	48 c7 45 f8 09 00 00 	mov    QWORD PTR [rbp-0x8],0x9
  4024db:	00 
  4024dc:	e9 3f 06 00 00       	jmp    402b20 <lowfat_heap_select+0x760>
  4024e1:	48 81 7d f0 9f 00 00 	cmp    QWORD PTR [rbp-0x10],0x9f
  4024e8:	00 
  4024e9:	0f 87 0d 00 00 00    	ja     4024fc <lowfat_heap_select+0x13c>
  4024ef:	48 c7 45 f8 0a 00 00 	mov    QWORD PTR [rbp-0x8],0xa
  4024f6:	00 
  4024f7:	e9 24 06 00 00       	jmp    402b20 <lowfat_heap_select+0x760>
  4024fc:	48 81 7d f0 bf 00 00 	cmp    QWORD PTR [rbp-0x10],0xbf
  402503:	00 
  402504:	0f 87 0d 00 00 00    	ja     402517 <lowfat_heap_select+0x157>
  40250a:	48 c7 45 f8 0b 00 00 	mov    QWORD PTR [rbp-0x8],0xb
  402511:	00 
  402512:	e9 09 06 00 00       	jmp    402b20 <lowfat_heap_select+0x760>
  402517:	48 81 7d f0 df 00 00 	cmp    QWORD PTR [rbp-0x10],0xdf
  40251e:	00 
  40251f:	0f 87 0d 00 00 00    	ja     402532 <lowfat_heap_select+0x172>
  402525:	48 c7 45 f8 0c 00 00 	mov    QWORD PTR [rbp-0x8],0xc
  40252c:	00 
  40252d:	e9 ee 05 00 00       	jmp    402b20 <lowfat_heap_select+0x760>
  402532:	e9 00 00 00 00       	jmp    402537 <lowfat_heap_select+0x177>
  402537:	48 81 7d f0 ff 00 00 	cmp    QWORD PTR [rbp-0x10],0xff
  40253e:	00 
  40253f:	0f 87 0d 00 00 00    	ja     402552 <lowfat_heap_select+0x192>
  402545:	48 c7 45 f8 0d 00 00 	mov    QWORD PTR [rbp-0x8],0xd
  40254c:	00 
  40254d:	e9 ce 05 00 00       	jmp    402b20 <lowfat_heap_select+0x760>
  402552:	48 81 7d f0 0f 01 00 	cmp    QWORD PTR [rbp-0x10],0x10f
  402559:	00 
  40255a:	0f 87 0d 00 00 00    	ja     40256d <lowfat_heap_select+0x1ad>
  402560:	48 c7 45 f8 0e 00 00 	mov    QWORD PTR [rbp-0x8],0xe
  402567:	00 
  402568:	e9 b3 05 00 00       	jmp    402b20 <lowfat_heap_select+0x760>
  40256d:	48 81 7d f0 3f 01 00 	cmp    QWORD PTR [rbp-0x10],0x13f
  402574:	00 
  402575:	0f 87 0d 00 00 00    	ja     402588 <lowfat_heap_select+0x1c8>
  40257b:	48 c7 45 f8 0f 00 00 	mov    QWORD PTR [rbp-0x8],0xf
  402582:	00 
  402583:	e9 98 05 00 00       	jmp    402b20 <lowfat_heap_select+0x760>
  402588:	48 81 7d f0 7f 01 00 	cmp    QWORD PTR [rbp-0x10],0x17f
  40258f:	00 
  402590:	0f 87 0d 00 00 00    	ja     4025a3 <lowfat_heap_select+0x1e3>
  402596:	48 c7 45 f8 10 00 00 	mov    QWORD PTR [rbp-0x8],0x10
  40259d:	00 
  40259e:	e9 7d 05 00 00       	jmp    402b20 <lowfat_heap_select+0x760>
  4025a3:	48 81 7d f0 bf 01 00 	cmp    QWORD PTR [rbp-0x10],0x1bf
  4025aa:	00 
  4025ab:	0f 87 0d 00 00 00    	ja     4025be <lowfat_heap_select+0x1fe>
  4025b1:	48 c7 45 f8 11 00 00 	mov    QWORD PTR [rbp-0x8],0x11
  4025b8:	00 
  4025b9:	e9 62 05 00 00       	jmp    402b20 <lowfat_heap_select+0x760>
  4025be:	e9 00 00 00 00       	jmp    4025c3 <lowfat_heap_select+0x203>
  4025c3:	48 81 7d f0 ff 01 00 	cmp    QWORD PTR [rbp-0x10],0x1ff
  4025ca:	00 
  4025cb:	0f 87 0d 00 00 00    	ja     4025de <lowfat_heap_select+0x21e>
  4025d1:	48 c7 45 f8 12 00 00 	mov    QWORD PTR [rbp-0x8],0x12
  4025d8:	00 
  4025d9:	e9 42 05 00 00       	jmp    402b20 <lowfat_heap_select+0x760>
  4025de:	48 81 7d f0 0f 02 00 	cmp    QWORD PTR [rbp-0x10],0x20f
  4025e5:	00 
  4025e6:	0f 87 0d 00 00 00    	ja     4025f9 <lowfat_heap_select+0x239>
  4025ec:	48 c7 45 f8 13 00 00 	mov    QWORD PTR [rbp-0x8],0x13
  4025f3:	00 
  4025f4:	e9 27 05 00 00       	jmp    402b20 <lowfat_heap_select+0x760>
  4025f9:	48 81 7d f0 7f 02 00 	cmp    QWORD PTR [rbp-0x10],0x27f
  402600:	00 
  402601:	0f 87 0d 00 00 00    	ja     402614 <lowfat_heap_select+0x254>
  402607:	48 c7 45 f8 14 00 00 	mov    QWORD PTR [rbp-0x8],0x14
  40260e:	00 
  40260f:	e9 0c 05 00 00       	jmp    402b20 <lowfat_heap_select+0x760>
  402614:	48 81 7d f0 ff 02 00 	cmp    QWORD PTR [rbp-0x10],0x2ff
  40261b:	00 
  40261c:	0f 87 0d 00 00 00    	ja     40262f <lowfat_heap_select+0x26f>
  402622:	48 c7 45 f8 15 00 00 	mov    QWORD PTR [rbp-0x8],0x15
  402629:	00 
  40262a:	e9 f1 04 00 00       	jmp    402b20 <lowfat_heap_select+0x760>
  40262f:	48 81 7d f0 7f 03 00 	cmp    QWORD PTR [rbp-0x10],0x37f
  402636:	00 
  402637:	0f 87 0d 00 00 00    	ja     40264a <lowfat_heap_select+0x28a>
  40263d:	48 c7 45 f8 16 00 00 	mov    QWORD PTR [rbp-0x8],0x16
  402644:	00 
  402645:	e9 d6 04 00 00       	jmp    402b20 <lowfat_heap_select+0x760>
  40264a:	e9 00 00 00 00       	jmp    40264f <lowfat_heap_select+0x28f>
  40264f:	48 81 7d f0 ff 03 00 	cmp    QWORD PTR [rbp-0x10],0x3ff
  402656:	00 
  402657:	0f 87 0d 00 00 00    	ja     40266a <lowfat_heap_select+0x2aa>
  40265d:	48 c7 45 f8 17 00 00 	mov    QWORD PTR [rbp-0x8],0x17
  402664:	00 
  402665:	e9 b6 04 00 00       	jmp    402b20 <lowfat_heap_select+0x760>
  40266a:	48 81 7d f0 0f 04 00 	cmp    QWORD PTR [rbp-0x10],0x40f
  402671:	00 
  402672:	0f 87 0d 00 00 00    	ja     402685 <lowfat_heap_select+0x2c5>
  402678:	48 c7 45 f8 18 00 00 	mov    QWORD PTR [rbp-0x8],0x18
  40267f:	00 
  402680:	e9 9b 04 00 00       	jmp    402b20 <lowfat_heap_select+0x760>
  402685:	48 81 7d f0 ff 04 00 	cmp    QWORD PTR [rbp-0x10],0x4ff
  40268c:	00 
  40268d:	0f 87 0d 00 00 00    	ja     4026a0 <lowfat_heap_select+0x2e0>
  402693:	48 c7 45 f8 19 00 00 	mov    QWORD PTR [rbp-0x8],0x19
  40269a:	00 
  40269b:	e9 80 04 00 00       	jmp    402b20 <lowfat_heap_select+0x760>
  4026a0:	48 81 7d f0 ff 05 00 	cmp    QWORD PTR [rbp-0x10],0x5ff
  4026a7:	00 
  4026a8:	0f 87 0d 00 00 00    	ja     4026bb <lowfat_heap_select+0x2fb>
  4026ae:	48 c7 45 f8 1a 00 00 	mov    QWORD PTR [rbp-0x8],0x1a
  4026b5:	00 
  4026b6:	e9 65 04 00 00       	jmp    402b20 <lowfat_heap_select+0x760>
  4026bb:	48 81 7d f0 ff 06 00 	cmp    QWORD PTR [rbp-0x10],0x6ff
  4026c2:	00 
  4026c3:	0f 87 0d 00 00 00    	ja     4026d6 <lowfat_heap_select+0x316>
  4026c9:	48 c7 45 f8 1b 00 00 	mov    QWORD PTR [rbp-0x8],0x1b
  4026d0:	00 
  4026d1:	e9 4a 04 00 00       	jmp    402b20 <lowfat_heap_select+0x760>
  4026d6:	e9 00 00 00 00       	jmp    4026db <lowfat_heap_select+0x31b>
  4026db:	48 81 7d f0 ff 07 00 	cmp    QWORD PTR [rbp-0x10],0x7ff
  4026e2:	00 
  4026e3:	0f 87 0d 00 00 00    	ja     4026f6 <lowfat_heap_select+0x336>
  4026e9:	48 c7 45 f8 1c 00 00 	mov    QWORD PTR [rbp-0x8],0x1c
  4026f0:	00 
  4026f1:	e9 2a 04 00 00       	jmp    402b20 <lowfat_heap_select+0x760>
  4026f6:	48 81 7d f0 0f 08 00 	cmp    QWORD PTR [rbp-0x10],0x80f
  4026fd:	00 
  4026fe:	0f 87 0d 00 00 00    	ja     402711 <lowfat_heap_select+0x351>
  402704:	48 c7 45 f8 1d 00 00 	mov    QWORD PTR [rbp-0x8],0x1d
  40270b:	00 
  40270c:	e9 0f 04 00 00       	jmp    402b20 <lowfat_heap_select+0x760>
  402711:	48 81 7d f0 ff 09 00 	cmp    QWORD PTR [rbp-0x10],0x9ff
  402718:	00 
  402719:	0f 87 0d 00 00 00    	ja     40272c <lowfat_heap_select+0x36c>
  40271f:	48 c7 45 f8 1e 00 00 	mov    QWORD PTR [rbp-0x8],0x1e
  402726:	00 
  402727:	e9 f4 03 00 00       	jmp    402b20 <lowfat_heap_select+0x760>
  40272c:	48 81 7d f0 ff 0b 00 	cmp    QWORD PTR [rbp-0x10],0xbff
  402733:	00 
  402734:	0f 87 0d 00 00 00    	ja     402747 <lowfat_heap_select+0x387>
  40273a:	48 c7 45 f8 1f 00 00 	mov    QWORD PTR [rbp-0x8],0x1f
  402741:	00 
  402742:	e9 d9 03 00 00       	jmp    402b20 <lowfat_heap_select+0x760>
  402747:	48 81 7d f0 ff 0d 00 	cmp    QWORD PTR [rbp-0x10],0xdff
  40274e:	00 
  40274f:	0f 87 0d 00 00 00    	ja     402762 <lowfat_heap_select+0x3a2>
  402755:	48 c7 45 f8 20 00 00 	mov    QWORD PTR [rbp-0x8],0x20
  40275c:	00 
  40275d:	e9 be 03 00 00       	jmp    402b20 <lowfat_heap_select+0x760>
  402762:	e9 00 00 00 00       	jmp    402767 <lowfat_heap_select+0x3a7>
  402767:	48 81 7d f0 ff 0f 00 	cmp    QWORD PTR [rbp-0x10],0xfff
  40276e:	00 
  40276f:	0f 87 0d 00 00 00    	ja     402782 <lowfat_heap_select+0x3c2>
  402775:	48 c7 45 f8 21 00 00 	mov    QWORD PTR [rbp-0x8],0x21
  40277c:	00 
  40277d:	e9 9e 03 00 00       	jmp    402b20 <lowfat_heap_select+0x760>
  402782:	48 81 7d f0 0f 10 00 	cmp    QWORD PTR [rbp-0x10],0x100f
  402789:	00 
  40278a:	0f 87 0d 00 00 00    	ja     40279d <lowfat_heap_select+0x3dd>
  402790:	48 c7 45 f8 22 00 00 	mov    QWORD PTR [rbp-0x8],0x22
  402797:	00 
  402798:	e9 83 03 00 00       	jmp    402b20 <lowfat_heap_select+0x760>
  40279d:	48 81 7d f0 ff 13 00 	cmp    QWORD PTR [rbp-0x10],0x13ff
  4027a4:	00 
  4027a5:	0f 87 0d 00 00 00    	ja     4027b8 <lowfat_heap_select+0x3f8>
  4027ab:	48 c7 45 f8 23 00 00 	mov    QWORD PTR [rbp-0x8],0x23
  4027b2:	00 
  4027b3:	e9 68 03 00 00       	jmp    402b20 <lowfat_heap_select+0x760>
  4027b8:	48 81 7d f0 ff 17 00 	cmp    QWORD PTR [rbp-0x10],0x17ff
  4027bf:	00 
  4027c0:	0f 87 0d 00 00 00    	ja     4027d3 <lowfat_heap_select+0x413>
  4027c6:	48 c7 45 f8 24 00 00 	mov    QWORD PTR [rbp-0x8],0x24
  4027cd:	00 
  4027ce:	e9 4d 03 00 00       	jmp    402b20 <lowfat_heap_select+0x760>
  4027d3:	48 81 7d f0 ff 1b 00 	cmp    QWORD PTR [rbp-0x10],0x1bff
  4027da:	00 
  4027db:	0f 87 0d 00 00 00    	ja     4027ee <lowfat_heap_select+0x42e>
  4027e1:	48 c7 45 f8 25 00 00 	mov    QWORD PTR [rbp-0x8],0x25
  4027e8:	00 
  4027e9:	e9 32 03 00 00       	jmp    402b20 <lowfat_heap_select+0x760>
  4027ee:	e9 00 00 00 00       	jmp    4027f3 <lowfat_heap_select+0x433>
  4027f3:	48 81 7d f0 ff 1f 00 	cmp    QWORD PTR [rbp-0x10],0x1fff
  4027fa:	00 
  4027fb:	0f 87 0d 00 00 00    	ja     40280e <lowfat_heap_select+0x44e>
  402801:	48 c7 45 f8 26 00 00 	mov    QWORD PTR [rbp-0x8],0x26
  402808:	00 
  402809:	e9 12 03 00 00       	jmp    402b20 <lowfat_heap_select+0x760>
  40280e:	48 81 7d f0 0f 20 00 	cmp    QWORD PTR [rbp-0x10],0x200f
  402815:	00 
  402816:	0f 87 0d 00 00 00    	ja     402829 <lowfat_heap_select+0x469>
  40281c:	48 c7 45 f8 27 00 00 	mov    QWORD PTR [rbp-0x8],0x27
  402823:	00 
  402824:	e9 f7 02 00 00       	jmp    402b20 <lowfat_heap_select+0x760>
  402829:	48 81 7d f0 ff 27 00 	cmp    QWORD PTR [rbp-0x10],0x27ff
  402830:	00 
  402831:	0f 87 0d 00 00 00    	ja     402844 <lowfat_heap_select+0x484>
  402837:	48 c7 45 f8 28 00 00 	mov    QWORD PTR [rbp-0x8],0x28
  40283e:	00 
  40283f:	e9 dc 02 00 00       	jmp    402b20 <lowfat_heap_select+0x760>
  402844:	48 81 7d f0 ff 2f 00 	cmp    QWORD PTR [rbp-0x10],0x2fff
  40284b:	00 
  40284c:	0f 87 0d 00 00 00    	ja     40285f <lowfat_heap_select+0x49f>
  402852:	48 c7 45 f8 29 00 00 	mov    QWORD PTR [rbp-0x8],0x29
  402859:	00 
  40285a:	e9 c1 02 00 00       	jmp    402b20 <lowfat_heap_select+0x760>
  40285f:	e9 00 00 00 00       	jmp    402864 <lowfat_heap_select+0x4a4>
  402864:	48 81 7d f0 ff 3f 00 	cmp    QWORD PTR [rbp-0x10],0x3fff
  40286b:	00 
  40286c:	0f 87 0d 00 00 00    	ja     40287f <lowfat_heap_select+0x4bf>
  402872:	48 c7 45 f8 2a 00 00 	mov    QWORD PTR [rbp-0x8],0x2a
  402879:	00 
  40287a:	e9 a1 02 00 00       	jmp    402b20 <lowfat_heap_select+0x760>
  40287f:	e9 00 00 00 00       	jmp    402884 <lowfat_heap_select+0x4c4>
  402884:	48 81 7d f0 ff 7f 00 	cmp    QWORD PTR [rbp-0x10],0x7fff
  40288b:	00 
  40288c:	0f 87 0d 00 00 00    	ja     40289f <lowfat_heap_select+0x4df>
  402892:	48 c7 45 f8 2b 00 00 	mov    QWORD PTR [rbp-0x8],0x2b
  402899:	00 
  40289a:	e9 81 02 00 00       	jmp    402b20 <lowfat_heap_select+0x760>
  40289f:	e9 00 00 00 00       	jmp    4028a4 <lowfat_heap_select+0x4e4>
  4028a4:	48 81 7d f0 ff ff 00 	cmp    QWORD PTR [rbp-0x10],0xffff
  4028ab:	00 
  4028ac:	0f 87 0d 00 00 00    	ja     4028bf <lowfat_heap_select+0x4ff>
  4028b2:	48 c7 45 f8 2c 00 00 	mov    QWORD PTR [rbp-0x8],0x2c
  4028b9:	00 
  4028ba:	e9 61 02 00 00       	jmp    402b20 <lowfat_heap_select+0x760>
  4028bf:	e9 00 00 00 00       	jmp    4028c4 <lowfat_heap_select+0x504>
  4028c4:	48 81 7d f0 ff ff 01 	cmp    QWORD PTR [rbp-0x10],0x1ffff
  4028cb:	00 
  4028cc:	0f 87 0d 00 00 00    	ja     4028df <lowfat_heap_select+0x51f>
  4028d2:	48 c7 45 f8 2d 00 00 	mov    QWORD PTR [rbp-0x8],0x2d
  4028d9:	00 
  4028da:	e9 41 02 00 00       	jmp    402b20 <lowfat_heap_select+0x760>
  4028df:	e9 00 00 00 00       	jmp    4028e4 <lowfat_heap_select+0x524>
  4028e4:	48 81 7d f0 ff ff 03 	cmp    QWORD PTR [rbp-0x10],0x3ffff
  4028eb:	00 
  4028ec:	0f 87 0d 00 00 00    	ja     4028ff <lowfat_heap_select+0x53f>
  4028f2:	48 c7 45 f8 2e 00 00 	mov    QWORD PTR [rbp-0x8],0x2e
  4028f9:	00 
  4028fa:	e9 21 02 00 00       	jmp    402b20 <lowfat_heap_select+0x760>
  4028ff:	e9 00 00 00 00       	jmp    402904 <lowfat_heap_select+0x544>
  402904:	48 81 7d f0 ff ff 07 	cmp    QWORD PTR [rbp-0x10],0x7ffff
  40290b:	00 
  40290c:	0f 87 0d 00 00 00    	ja     40291f <lowfat_heap_select+0x55f>
  402912:	48 c7 45 f8 2f 00 00 	mov    QWORD PTR [rbp-0x8],0x2f
  402919:	00 
  40291a:	e9 01 02 00 00       	jmp    402b20 <lowfat_heap_select+0x760>
  40291f:	e9 00 00 00 00       	jmp    402924 <lowfat_heap_select+0x564>
  402924:	48 81 7d f0 ff ff 0f 	cmp    QWORD PTR [rbp-0x10],0xfffff
  40292b:	00 
  40292c:	0f 87 0d 00 00 00    	ja     40293f <lowfat_heap_select+0x57f>
  402932:	48 c7 45 f8 30 00 00 	mov    QWORD PTR [rbp-0x8],0x30
  402939:	00 
  40293a:	e9 e1 01 00 00       	jmp    402b20 <lowfat_heap_select+0x760>
  40293f:	e9 00 00 00 00       	jmp    402944 <lowfat_heap_select+0x584>
  402944:	48 81 7d f0 ff ff 1f 	cmp    QWORD PTR [rbp-0x10],0x1fffff
  40294b:	00 
  40294c:	0f 87 0d 00 00 00    	ja     40295f <lowfat_heap_select+0x59f>
  402952:	48 c7 45 f8 31 00 00 	mov    QWORD PTR [rbp-0x8],0x31
  402959:	00 
  40295a:	e9 c1 01 00 00       	jmp    402b20 <lowfat_heap_select+0x760>
  40295f:	e9 00 00 00 00       	jmp    402964 <lowfat_heap_select+0x5a4>
  402964:	48 81 7d f0 ff ff 3f 	cmp    QWORD PTR [rbp-0x10],0x3fffff
  40296b:	00 
  40296c:	0f 87 0d 00 00 00    	ja     40297f <lowfat_heap_select+0x5bf>
  402972:	48 c7 45 f8 32 00 00 	mov    QWORD PTR [rbp-0x8],0x32
  402979:	00 
  40297a:	e9 a1 01 00 00       	jmp    402b20 <lowfat_heap_select+0x760>
  40297f:	e9 00 00 00 00       	jmp    402984 <lowfat_heap_select+0x5c4>
  402984:	48 81 7d f0 fe ff 7f 	cmp    QWORD PTR [rbp-0x10],0x7ffffe
  40298b:	00 
  40298c:	0f 87 0d 00 00 00    	ja     40299f <lowfat_heap_select+0x5df>
  402992:	48 c7 45 f8 33 00 00 	mov    QWORD PTR [rbp-0x8],0x33
  402999:	00 
  40299a:	e9 81 01 00 00       	jmp    402b20 <lowfat_heap_select+0x760>
  40299f:	e9 00 00 00 00       	jmp    4029a4 <lowfat_heap_select+0x5e4>
  4029a4:	48 81 7d f0 fc ff ff 	cmp    QWORD PTR [rbp-0x10],0xfffffc
  4029ab:	00 
  4029ac:	0f 87 0d 00 00 00    	ja     4029bf <lowfat_heap_select+0x5ff>
  4029b2:	48 c7 45 f8 34 00 00 	mov    QWORD PTR [rbp-0x8],0x34
  4029b9:	00 
  4029ba:	e9 61 01 00 00       	jmp    402b20 <lowfat_heap_select+0x760>
  4029bf:	e9 00 00 00 00       	jmp    4029c4 <lowfat_heap_select+0x604>
  4029c4:	48 81 7d f0 f9 ff ff 	cmp    QWORD PTR [rbp-0x10],0x1fffff9
  4029cb:	01 
  4029cc:	0f 87 0d 00 00 00    	ja     4029df <lowfat_heap_select+0x61f>
  4029d2:	48 c7 45 f8 35 00 00 	mov    QWORD PTR [rbp-0x8],0x35
  4029d9:	00 
  4029da:	e9 41 01 00 00       	jmp    402b20 <lowfat_heap_select+0x760>
  4029df:	e9 00 00 00 00       	jmp    4029e4 <lowfat_heap_select+0x624>
  4029e4:	48 81 7d f0 f2 ff ff 	cmp    QWORD PTR [rbp-0x10],0x3fffff2
  4029eb:	03 
  4029ec:	0f 87 0d 00 00 00    	ja     4029ff <lowfat_heap_select+0x63f>
  4029f2:	48 c7 45 f8 36 00 00 	mov    QWORD PTR [rbp-0x8],0x36
  4029f9:	00 
  4029fa:	e9 21 01 00 00       	jmp    402b20 <lowfat_heap_select+0x760>
  4029ff:	e9 00 00 00 00       	jmp    402a04 <lowfat_heap_select+0x644>
  402a04:	48 81 7d f0 e3 ff ff 	cmp    QWORD PTR [rbp-0x10],0x7ffffe3
  402a0b:	07 
  402a0c:	0f 87 0d 00 00 00    	ja     402a1f <lowfat_heap_select+0x65f>
  402a12:	48 c7 45 f8 37 00 00 	mov    QWORD PTR [rbp-0x8],0x37
  402a19:	00 
  402a1a:	e9 01 01 00 00       	jmp    402b20 <lowfat_heap_select+0x760>
  402a1f:	e9 00 00 00 00       	jmp    402a24 <lowfat_heap_select+0x664>
  402a24:	48 81 7d f0 c6 ff ff 	cmp    QWORD PTR [rbp-0x10],0xfffffc6
  402a2b:	0f 
  402a2c:	0f 87 0d 00 00 00    	ja     402a3f <lowfat_heap_select+0x67f>
  402a32:	48 c7 45 f8 38 00 00 	mov    QWORD PTR [rbp-0x8],0x38
  402a39:	00 
  402a3a:	e9 e1 00 00 00       	jmp    402b20 <lowfat_heap_select+0x760>
  402a3f:	e9 00 00 00 00       	jmp    402a44 <lowfat_heap_select+0x684>
  402a44:	48 81 7d f0 8b ff ff 	cmp    QWORD PTR [rbp-0x10],0x1fffff8b
  402a4b:	1f 
  402a4c:	0f 87 0d 00 00 00    	ja     402a5f <lowfat_heap_select+0x69f>
  402a52:	48 c7 45 f8 39 00 00 	mov    QWORD PTR [rbp-0x8],0x39
  402a59:	00 
  402a5a:	e9 c1 00 00 00       	jmp    402b20 <lowfat_heap_select+0x760>
  402a5f:	e9 00 00 00 00       	jmp    402a64 <lowfat_heap_select+0x6a4>
  402a64:	48 81 7d f0 13 ff ff 	cmp    QWORD PTR [rbp-0x10],0x3fffff13
  402a6b:	3f 
  402a6c:	0f 87 0d 00 00 00    	ja     402a7f <lowfat_heap_select+0x6bf>
  402a72:	48 c7 45 f8 3a 00 00 	mov    QWORD PTR [rbp-0x8],0x3a
  402a79:	00 
  402a7a:	e9 a1 00 00 00       	jmp    402b20 <lowfat_heap_select+0x760>
  402a7f:	e9 00 00 00 00       	jmp    402a84 <lowfat_heap_select+0x6c4>
  402a84:	48 81 7d f0 1f fe ff 	cmp    QWORD PTR [rbp-0x10],0x7ffffe1f
  402a8b:	7f 
  402a8c:	0f 87 0d 00 00 00    	ja     402a9f <lowfat_heap_select+0x6df>
  402a92:	48 c7 45 f8 3b 00 00 	mov    QWORD PTR [rbp-0x8],0x3b
  402a99:	00 
  402a9a:	e9 81 00 00 00       	jmp    402b20 <lowfat_heap_select+0x760>
  402a9f:	e9 00 00 00 00       	jmp    402aa4 <lowfat_heap_select+0x6e4>
  402aa4:	b8 2f fc ff ff       	mov    eax,0xfffffc2f
  402aa9:	89 c1                	mov    ecx,eax
  402aab:	48 39 4d f0          	cmp    QWORD PTR [rbp-0x10],rcx
  402aaf:	0f 87 0d 00 00 00    	ja     402ac2 <lowfat_heap_select+0x702>
  402ab5:	48 c7 45 f8 3c 00 00 	mov    QWORD PTR [rbp-0x8],0x3c
  402abc:	00 
  402abd:	e9 5e 00 00 00       	jmp    402b20 <lowfat_heap_select+0x760>
  402ac2:	e9 00 00 00 00       	jmp    402ac7 <lowfat_heap_select+0x707>
  402ac7:	48 b8 3c f8 ff ff 01 	movabs rax,0x1fffff83c
  402ace:	00 00 00 
  402ad1:	48 39 45 f0          	cmp    QWORD PTR [rbp-0x10],rax
  402ad5:	0f 87 0d 00 00 00    	ja     402ae8 <lowfat_heap_select+0x728>
  402adb:	48 c7 45 f8 3d 00 00 	mov    QWORD PTR [rbp-0x8],0x3d
  402ae2:	00 
  402ae3:	e9 38 00 00 00       	jmp    402b20 <lowfat_heap_select+0x760>
  402ae8:	e9 00 00 00 00       	jmp    402aed <lowfat_heap_select+0x72d>
  402aed:	48 b8 30 f0 ff ff 03 	movabs rax,0x3fffff030
  402af4:	00 00 00 
  402af7:	48 39 45 f0          	cmp    QWORD PTR [rbp-0x10],rax
  402afb:	0f 87 0d 00 00 00    	ja     402b0e <lowfat_heap_select+0x74e>
  402b01:	48 c7 45 f8 3e 00 00 	mov    QWORD PTR [rbp-0x8],0x3e
  402b08:	00 
  402b09:	e9 12 00 00 00       	jmp    402b20 <lowfat_heap_select+0x760>
  402b0e:	e9 00 00 00 00       	jmp    402b13 <lowfat_heap_select+0x753>
  402b13:	e9 00 00 00 00       	jmp    402b18 <lowfat_heap_select+0x758>
  402b18:	48 c7 45 f8 00 00 00 	mov    QWORD PTR [rbp-0x8],0x0
  402b1f:	00 
  402b20:	48 8b 45 f8          	mov    rax,QWORD PTR [rbp-0x8]
  402b24:	5d                   	pop    rbp
  402b25:	c3                   	ret    
  402b26:	66 2e 0f 1f 84 00 00 	nop    WORD PTR cs:[rax+rax*1+0x0]
  402b2d:	00 00 00 

0000000000402b30 <lowfat_malloc_index>:
  402b30:	55                   	push   rbp
  402b31:	48 89 e5             	mov    rbp,rsp
  402b34:	48 83 ec 40          	sub    rsp,0x40
  402b38:	48 89 7d f0          	mov    QWORD PTR [rbp-0x10],rdi
  402b3c:	48 89 75 e8          	mov    QWORD PTR [rbp-0x18],rsi
  402b40:	48 83 7d f0 00       	cmp    QWORD PTR [rbp-0x10],0x0
  402b45:	0f 85 12 00 00 00    	jne    402b5d <lowfat_malloc_index+0x2d>
  402b4b:	48 8b 7d e8          	mov    rdi,QWORD PTR [rbp-0x18]
  402b4f:	e8 fc 00 00 00       	call   402c50 <lowfat_fallback_malloc>
  402b54:	48 89 45 f8          	mov    QWORD PTR [rbp-0x8],rax
  402b58:	e9 da 00 00 00       	jmp    402c37 <lowfat_malloc_index+0x107>
  402b5d:	48 8b 45 f0          	mov    rax,QWORD PTR [rbp-0x10]
  402b61:	48 8b 04 c5 00 00 20 	mov    rax,QWORD PTR [rax*8+0x200000]
  402b68:	00 
  402b69:	48 89 45 e0          	mov    QWORD PTR [rbp-0x20],rax
  402b6d:	48 8b 45 f0          	mov    rax,QWORD PTR [rbp-0x10]
  402b71:	48 8d 04 80          	lea    rax,[rax+rax*4]
  402b75:	48 b9 50 e5 60 00 00 	movabs rcx,0x60e550
  402b7c:	00 00 00 
  402b7f:	48 8d 04 c1          	lea    rax,[rcx+rax*8]
  402b83:	48 89 45 d8          	mov    QWORD PTR [rbp-0x28],rax
  402b87:	48 8b 7d d8          	mov    rdi,QWORD PTR [rbp-0x28]
  402b8b:	e8 20 01 00 00       	call   402cb0 <lowfat_mutex_lock>
  402b90:	48 8b 45 d8          	mov    rax,QWORD PTR [rbp-0x28]
  402b94:	48 8b 40 08          	mov    rax,QWORD PTR [rax+0x8]
  402b98:	48 89 45 c8          	mov    QWORD PTR [rbp-0x38],rax
  402b9c:	48 83 7d c8 00       	cmp    QWORD PTR [rbp-0x38],0x0
  402ba1:	0f 84 2e 00 00 00    	je     402bd5 <lowfat_malloc_index+0xa5>
  402ba7:	48 8b 45 c8          	mov    rax,QWORD PTR [rbp-0x38]
  402bab:	48 8b 40 08          	mov    rax,QWORD PTR [rax+0x8]
  402baf:	48 8b 4d d8          	mov    rcx,QWORD PTR [rbp-0x28]
  402bb3:	48 89 41 08          	mov    QWORD PTR [rcx+0x8],rax
  402bb7:	48 8b 7d d8          	mov    rdi,QWORD PTR [rbp-0x28]
  402bbb:	e8 00 01 00 00       	call   402cc0 <lowfat_mutex_unlock>
  402bc0:	48 8b 45 c8          	mov    rax,QWORD PTR [rbp-0x38]
  402bc4:	48 89 45 d0          	mov    QWORD PTR [rbp-0x30],rax
  402bc8:	48 8b 45 d0          	mov    rax,QWORD PTR [rbp-0x30]
  402bcc:	48 89 45 f8          	mov    QWORD PTR [rbp-0x8],rax
  402bd0:	e9 62 00 00 00       	jmp    402c37 <lowfat_malloc_index+0x107>
  402bd5:	48 8b 45 d8          	mov    rax,QWORD PTR [rbp-0x28]
  402bd9:	48 8b 40 10          	mov    rax,QWORD PTR [rax+0x10]
  402bdd:	48 89 45 d0          	mov    QWORD PTR [rbp-0x30],rax
  402be1:	48 8b 45 d0          	mov    rax,QWORD PTR [rbp-0x30]
  402be5:	48 03 45 e0          	add    rax,QWORD PTR [rbp-0x20]
  402be9:	48 89 45 c0          	mov    QWORD PTR [rbp-0x40],rax
  402bed:	48 8b 45 c0          	mov    rax,QWORD PTR [rbp-0x40]
  402bf1:	48 8b 4d d8          	mov    rcx,QWORD PTR [rbp-0x28]
  402bf5:	48 3b 41 18          	cmp    rax,QWORD PTR [rcx+0x18]
  402bf9:	0f 86 1b 00 00 00    	jbe    402c1a <lowfat_malloc_index+0xea>
  402bff:	48 8b 7d d8          	mov    rdi,QWORD PTR [rbp-0x28]
  402c03:	e8 b8 00 00 00       	call   402cc0 <lowfat_mutex_unlock>
  402c08:	48 8b 7d e8          	mov    rdi,QWORD PTR [rbp-0x18]
  402c0c:	e8 3f 00 00 00       	call   402c50 <lowfat_fallback_malloc>
  402c11:	48 89 45 f8          	mov    QWORD PTR [rbp-0x8],rax
  402c15:	e9 1d 00 00 00       	jmp    402c37 <lowfat_malloc_index+0x107>
  402c1a:	48 8b 45 c0          	mov    rax,QWORD PTR [rbp-0x40]
  402c1e:	48 8b 4d d8          	mov    rcx,QWORD PTR [rbp-0x28]
  402c22:	48 89 41 10          	mov    QWORD PTR [rcx+0x10],rax
  402c26:	48 8b 7d d8          	mov    rdi,QWORD PTR [rbp-0x28]
  402c2a:	e8 91 00 00 00       	call   402cc0 <lowfat_mutex_unlock>
  402c2f:	48 8b 45 d0          	mov    rax,QWORD PTR [rbp-0x30]
  402c33:	48 89 45 f8          	mov    QWORD PTR [rbp-0x8],rax
  402c37:	48 8b 45 f8          	mov    rax,QWORD PTR [rbp-0x8]
  402c3b:	48 83 c4 40          	add    rsp,0x40
  402c3f:	5d                   	pop    rbp
  402c40:	c3                   	ret    
  402c41:	66 66 66 66 66 66 2e 	data16 data16 data16 data16 data16 nop WORD PTR cs:[rax+rax*1+0x0]
  402c48:	0f 1f 84 00 00 00 00 
  402c4f:	00 

0000000000402c50 <lowfat_fallback_malloc>:
  402c50:	55                   	push   rbp
  402c51:	48 89 e5             	mov    rbp,rsp
  402c54:	48 83 ec 10          	sub    rsp,0x10
  402c58:	48 89 7d f8          	mov    QWORD PTR [rbp-0x8],rdi
  402c5c:	48 8b 7d f8          	mov    rdi,QWORD PTR [rbp-0x8]
  402c60:	e8 6b e5 ff ff       	call   4011d0 <__libc_malloc@plt>
  402c65:	48 89 45 f0          	mov    QWORD PTR [rbp-0x10],rax
  402c69:	48 83 7d f0 00       	cmp    QWORD PTR [rbp-0x10],0x0
  402c6e:	0f 85 24 00 00 00    	jne    402c98 <lowfat_fallback_malloc+0x48>
  402c74:	e8 b7 e6 ff ff       	call   401330 <__errno_location@plt>
  402c79:	8b 38                	mov    edi,DWORD PTR [rax]
  402c7b:	e8 30 e6 ff ff       	call   4012b0 <strerror@plt>
  402c80:	48 bf 88 a8 40 00 00 	movabs rdi,0x40a888
  402c87:	00 00 00 
  402c8a:	31 c9                	xor    ecx,ecx
  402c8c:	88 ca                	mov    dl,cl
  402c8e:	48 89 c6             	mov    rsi,rax
  402c91:	88 d0                	mov    al,dl
  402c93:	e8 38 05 00 00       	call   4031d0 <lowfat_error>
  402c98:	48 8b 45 f0          	mov    rax,QWORD PTR [rbp-0x10]
  402c9c:	48 83 c4 10          	add    rsp,0x10
  402ca0:	5d                   	pop    rbp
  402ca1:	c3                   	ret    
  402ca2:	66 66 66 66 66 2e 0f 	data16 data16 data16 data16 nop WORD PTR cs:[rax+rax*1+0x0]
  402ca9:	1f 84 00 00 00 00 00 

0000000000402cb0 <lowfat_mutex_lock>:
  402cb0:	55                   	push   rbp
  402cb1:	48 89 e5             	mov    rbp,rsp
  402cb4:	48 89 7d f8          	mov    QWORD PTR [rbp-0x8],rdi
  402cb8:	5d                   	pop    rbp
  402cb9:	c3                   	ret    
  402cba:	66 0f 1f 44 00 00    	nop    WORD PTR [rax+rax*1+0x0]

0000000000402cc0 <lowfat_mutex_unlock>:
  402cc0:	55                   	push   rbp
  402cc1:	48 89 e5             	mov    rbp,rsp
  402cc4:	48 89 7d f8          	mov    QWORD PTR [rbp-0x8],rdi
  402cc8:	5d                   	pop    rbp
  402cc9:	c3                   	ret    
  402cca:	66 0f 1f 44 00 00    	nop    WORD PTR [rax+rax*1+0x0]

0000000000402cd0 <lowfat__ZdaPv>:
  402cd0:	55                   	push   rbp
  402cd1:	48 89 e5             	mov    rbp,rsp
  402cd4:	48 81 ec 30 01 00 00 	sub    rsp,0x130
  402cdb:	48 89 bd 30 ff ff ff 	mov    QWORD PTR [rbp-0xd0],rdi
  402ce2:	48 83 bd 30 ff ff ff 	cmp    QWORD PTR [rbp-0xd0],0x0
  402ce9:	00 
  402cea:	0f 85 05 00 00 00    	jne    402cf5 <lowfat__ZdaPv+0x25>
  402cf0:	e9 62 03 00 00       	jmp    403057 <lowfat__ZdaPv+0x387>
  402cf5:	48 8b bd 30 ff ff ff 	mov    rdi,QWORD PTR [rbp-0xd0]
  402cfc:	e8 5f 03 00 00       	call   403060 <lowfat_is_ptr>
  402d01:	a8 01                	test   al,0x1
  402d03:	0f 85 11 00 00 00    	jne    402d1a <lowfat__ZdaPv+0x4a>
  402d09:	48 8b bd 30 ff ff ff 	mov    rdi,QWORD PTR [rbp-0xd0]
  402d10:	e8 3b e4 ff ff       	call   401150 <__libc_free@plt>
  402d15:	e9 3d 03 00 00       	jmp    403057 <lowfat__ZdaPv+0x387>
  402d1a:	48 8b bd 30 ff ff ff 	mov    rdi,QWORD PTR [rbp-0xd0]
  402d21:	e8 7a 03 00 00       	call   4030a0 <lowfat_is_heap_ptr>
  402d26:	a8 01                	test   al,0x1
  402d28:	0f 85 50 01 00 00    	jne    402e7e <lowfat__ZdaPv+0x1ae>
  402d2e:	b8 00 00 20 00       	mov    eax,0x200000
  402d33:	89 c1                	mov    ecx,eax
  402d35:	48 8b bd 30 ff ff ff 	mov    rdi,QWORD PTR [rbp-0xd0]
  402d3c:	48 89 8d e0 fe ff ff 	mov    QWORD PTR [rbp-0x120],rcx
  402d43:	e8 e8 03 00 00       	call   403130 <lowfat_is_stack_ptr>
  402d48:	48 b9 ab a5 40 00 00 	movabs rcx,0x40a5ab
  402d4f:	00 00 00 
  402d52:	48 bf b1 a5 40 00 00 	movabs rdi,0x40a5b1
  402d59:	00 00 00 
  402d5c:	84 c0                	test   al,al
  402d5e:	48 0f 45 f9          	cmovne rdi,rcx
  402d62:	48 89 bd 28 ff ff ff 	mov    QWORD PTR [rbp-0xd8],rdi
  402d69:	48 8b 8d 28 ff ff ff 	mov    rcx,QWORD PTR [rbp-0xd8]
  402d70:	48 89 cf             	mov    rdi,rcx
  402d73:	48 8b 95 30 ff ff ff 	mov    rdx,QWORD PTR [rbp-0xd0]
  402d7a:	48 89 95 48 ff ff ff 	mov    QWORD PTR [rbp-0xb8],rdx
  402d81:	48 8b b5 48 ff ff ff 	mov    rsi,QWORD PTR [rbp-0xb8]
  402d88:	48 89 b5 50 ff ff ff 	mov    QWORD PTR [rbp-0xb0],rsi
  402d8f:	48 8b b5 50 ff ff ff 	mov    rsi,QWORD PTR [rbp-0xb0]
  402d96:	48 c1 ee 24          	shr    rsi,0x24
  402d9a:	48 89 b5 40 ff ff ff 	mov    QWORD PTR [rbp-0xc0],rsi
  402da1:	48 8b b5 48 ff ff ff 	mov    rsi,QWORD PTR [rbp-0xb8]
  402da8:	48 89 75 80          	mov    QWORD PTR [rbp-0x80],rsi
  402dac:	48 8b 75 80          	mov    rsi,QWORD PTR [rbp-0x80]
  402db0:	48 89 75 88          	mov    QWORD PTR [rbp-0x78],rsi
  402db4:	48 8b 75 88          	mov    rsi,QWORD PTR [rbp-0x78]
  402db8:	48 c1 ee 24          	shr    rsi,0x24
  402dbc:	48 89 b5 78 ff ff ff 	mov    QWORD PTR [rbp-0x88],rsi
  402dc3:	48 8b b5 78 ff ff ff 	mov    rsi,QWORD PTR [rbp-0x88]
  402dca:	48 8b 04 f5 00 00 30 	mov    rax,QWORD PTR [rsi*8+0x300000]
  402dd1:	00 
  402dd2:	48 8b 75 80          	mov    rsi,QWORD PTR [rbp-0x80]
  402dd6:	48 89 95 d8 fe ff ff 	mov    QWORD PTR [rbp-0x128],rdx
  402ddd:	48 f7 e6             	mul    rsi
  402de0:	48 89 95 68 ff ff ff 	mov    QWORD PTR [rbp-0x98],rdx
  402de7:	48 89 85 60 ff ff ff 	mov    QWORD PTR [rbp-0xa0],rax
  402dee:	48 8b 85 68 ff ff ff 	mov    rax,QWORD PTR [rbp-0x98]
  402df5:	48 89 85 58 ff ff ff 	mov    QWORD PTR [rbp-0xa8],rax
  402dfc:	48 8b 85 58 ff ff ff 	mov    rax,QWORD PTR [rbp-0xa8]
  402e03:	48 89 85 38 ff ff ff 	mov    QWORD PTR [rbp-0xc8],rax
  402e0a:	48 8b 85 38 ff ff ff 	mov    rax,QWORD PTR [rbp-0xc8]
  402e11:	48 8b 95 40 ff ff ff 	mov    rdx,QWORD PTR [rbp-0xc0]
  402e18:	48 8b b5 e0 fe ff ff 	mov    rsi,QWORD PTR [rbp-0x120]
  402e1f:	48 0f af 04 d6       	imul   rax,QWORD PTR [rsi+rdx*8]
  402e24:	48 8b 95 30 ff ff ff 	mov    rdx,QWORD PTR [rbp-0xd0]
  402e2b:	48 89 55 98          	mov    QWORD PTR [rbp-0x68],rdx
  402e2f:	48 8b 55 98          	mov    rdx,QWORD PTR [rbp-0x68]
  402e33:	48 89 55 a0          	mov    QWORD PTR [rbp-0x60],rdx
  402e37:	48 8b 55 a0          	mov    rdx,QWORD PTR [rbp-0x60]
  402e3b:	48 c1 ea 24          	shr    rdx,0x24
  402e3f:	48 89 55 90          	mov    QWORD PTR [rbp-0x70],rdx
  402e43:	48 8b 55 90          	mov    rdx,QWORD PTR [rbp-0x70]
  402e47:	4c 8b 0c d6          	mov    r9,QWORD PTR [rsi+rdx*8]
  402e4b:	48 ba b8 a5 40 00 00 	movabs rdx,0x40a5b8
  402e52:	00 00 00 
  402e55:	45 31 c0             	xor    r8d,r8d
  402e58:	45 88 c2             	mov    r10b,r8b
  402e5b:	48 89 bd d0 fe ff ff 	mov    QWORD PTR [rbp-0x130],rdi
  402e62:	48 89 d7             	mov    rdi,rdx
  402e65:	48 8b b5 d0 fe ff ff 	mov    rsi,QWORD PTR [rbp-0x130]
  402e6c:	48 8b 95 d8 fe ff ff 	mov    rdx,QWORD PTR [rbp-0x128]
  402e73:	49 89 c0             	mov    r8,rax
  402e76:	44 88 d0             	mov    al,r10b
  402e79:	e8 52 03 00 00       	call   4031d0 <lowfat_error>
  402e7e:	b8 00 00 20 00       	mov    eax,0x200000
  402e83:	89 c1                	mov    ecx,eax
  402e85:	48 8b 95 30 ff ff ff 	mov    rdx,QWORD PTR [rbp-0xd0]
  402e8c:	48 89 55 b8          	mov    QWORD PTR [rbp-0x48],rdx
  402e90:	48 8b 55 b8          	mov    rdx,QWORD PTR [rbp-0x48]
  402e94:	48 89 55 c0          	mov    QWORD PTR [rbp-0x40],rdx
  402e98:	48 8b 55 c0          	mov    rdx,QWORD PTR [rbp-0x40]
  402e9c:	48 c1 ea 24          	shr    rdx,0x24
  402ea0:	48 89 55 b0          	mov    QWORD PTR [rbp-0x50],rdx
  402ea4:	48 8b 55 b8          	mov    rdx,QWORD PTR [rbp-0x48]
  402ea8:	48 89 55 e8          	mov    QWORD PTR [rbp-0x18],rdx
  402eac:	48 8b 55 e8          	mov    rdx,QWORD PTR [rbp-0x18]
  402eb0:	48 89 55 f0          	mov    QWORD PTR [rbp-0x10],rdx
  402eb4:	48 8b 55 f0          	mov    rdx,QWORD PTR [rbp-0x10]
  402eb8:	48 c1 ea 24          	shr    rdx,0x24
  402ebc:	48 89 55 e0          	mov    QWORD PTR [rbp-0x20],rdx
  402ec0:	48 8b 55 e0          	mov    rdx,QWORD PTR [rbp-0x20]
  402ec4:	48 8b 04 d5 00 00 30 	mov    rax,QWORD PTR [rdx*8+0x300000]
  402ecb:	00 
  402ecc:	48 8b 55 e8          	mov    rdx,QWORD PTR [rbp-0x18]
  402ed0:	48 f7 e2             	mul    rdx
  402ed3:	48 89 55 d8          	mov    QWORD PTR [rbp-0x28],rdx
  402ed7:	48 89 45 d0          	mov    QWORD PTR [rbp-0x30],rax
  402edb:	48 8b 45 d8          	mov    rax,QWORD PTR [rbp-0x28]
  402edf:	48 89 45 c8          	mov    QWORD PTR [rbp-0x38],rax
  402ee3:	48 8b 45 c8          	mov    rax,QWORD PTR [rbp-0x38]
  402ee7:	48 89 45 a8          	mov    QWORD PTR [rbp-0x58],rax
  402eeb:	48 8b 45 a8          	mov    rax,QWORD PTR [rbp-0x58]
  402eef:	48 8b 55 b0          	mov    rdx,QWORD PTR [rbp-0x50]
  402ef3:	48 0f af 04 d1       	imul   rax,QWORD PTR [rcx+rdx*8]
  402ef8:	48 89 85 30 ff ff ff 	mov    QWORD PTR [rbp-0xd0],rax
  402eff:	48 8b 85 30 ff ff ff 	mov    rax,QWORD PTR [rbp-0xd0]
  402f06:	48 89 45 f8          	mov    QWORD PTR [rbp-0x8],rax
  402f0a:	48 8b 45 f8          	mov    rax,QWORD PTR [rbp-0x8]
  402f0e:	48 c1 e8 24          	shr    rax,0x24
  402f12:	48 89 85 20 ff ff ff 	mov    QWORD PTR [rbp-0xe0],rax
  402f19:	48 8b 85 20 ff ff ff 	mov    rax,QWORD PTR [rbp-0xe0]
  402f20:	48 8b 04 c1          	mov    rax,QWORD PTR [rcx+rax*8]
  402f24:	48 89 85 18 ff ff ff 	mov    QWORD PTR [rbp-0xe8],rax
  402f2b:	48 81 bd 18 ff ff ff 	cmp    QWORD PTR [rbp-0xe8],0x3000
  402f32:	00 30 00 00 
  402f36:	0f 82 9f 00 00 00    	jb     402fdb <lowfat__ZdaPv+0x30b>
  402f3c:	31 c0                	xor    eax,eax
  402f3e:	89 c1                	mov    ecx,eax
  402f40:	48 8b 95 30 ff ff ff 	mov    rdx,QWORD PTR [rbp-0xd0]
  402f47:	48 8b b5 30 ff ff ff 	mov    rsi,QWORD PTR [rbp-0xd0]
  402f4e:	48 81 e6 ff 0f 00 00 	and    rsi,0xfff
  402f55:	48 89 cf             	mov    rdi,rcx
  402f58:	48 29 f7             	sub    rdi,rsi
  402f5b:	48 01 fa             	add    rdx,rdi
  402f5e:	48 89 95 10 ff ff ff 	mov    QWORD PTR [rbp-0xf0],rdx
  402f65:	48 8b 95 30 ff ff ff 	mov    rdx,QWORD PTR [rbp-0xd0]
  402f6c:	48 03 95 18 ff ff ff 	add    rdx,QWORD PTR [rbp-0xe8]
  402f73:	48 89 95 08 ff ff ff 	mov    QWORD PTR [rbp-0xf8],rdx
  402f7a:	48 8b 95 08 ff ff ff 	mov    rdx,QWORD PTR [rbp-0xf8]
  402f81:	48 8b b5 08 ff ff ff 	mov    rsi,QWORD PTR [rbp-0xf8]
  402f88:	48 81 e6 ff 0f 00 00 	and    rsi,0xfff
  402f8f:	48 29 f1             	sub    rcx,rsi
  402f92:	48 01 ca             	add    rdx,rcx
  402f95:	48 89 95 08 ff ff ff 	mov    QWORD PTR [rbp-0xf8],rdx
  402f9c:	48 8b 8d 08 ff ff ff 	mov    rcx,QWORD PTR [rbp-0xf8]
  402fa3:	48 8b 95 10 ff ff ff 	mov    rdx,QWORD PTR [rbp-0xf0]
  402faa:	48 29 d1             	sub    rcx,rdx
  402fad:	48 89 8d 00 ff ff ff 	mov    QWORD PTR [rbp-0x100],rcx
  402fb4:	48 8b 8d 10 ff ff ff 	mov    rcx,QWORD PTR [rbp-0xf0]
  402fbb:	48 81 c1 00 10 00 00 	add    rcx,0x1000
  402fc2:	48 8b 95 00 ff ff ff 	mov    rdx,QWORD PTR [rbp-0x100]
  402fc9:	48 81 ea 00 10 00 00 	sub    rdx,0x1000
  402fd0:	48 89 cf             	mov    rdi,rcx
  402fd3:	48 89 d6             	mov    rsi,rdx
  402fd6:	e8 75 03 00 00       	call   403350 <lowfat_dont_need>
  402fdb:	48 8b 85 20 ff ff ff 	mov    rax,QWORD PTR [rbp-0xe0]
  402fe2:	48 8d 04 80          	lea    rax,[rax+rax*4]
  402fe6:	48 b9 50 e5 60 00 00 	movabs rcx,0x60e550
  402fed:	00 00 00 
  402ff0:	48 8d 04 c1          	lea    rax,[rcx+rax*8]
  402ff4:	48 89 85 f8 fe ff ff 	mov    QWORD PTR [rbp-0x108],rax
  402ffb:	48 8b bd f8 fe ff ff 	mov    rdi,QWORD PTR [rbp-0x108]
  403002:	e8 a9 fc ff ff       	call   402cb0 <lowfat_mutex_lock>
  403007:	48 8b 85 30 ff ff ff 	mov    rax,QWORD PTR [rbp-0xd0]
  40300e:	48 89 85 f0 fe ff ff 	mov    QWORD PTR [rbp-0x110],rax
  403015:	48 8b 85 f8 fe ff ff 	mov    rax,QWORD PTR [rbp-0x108]
  40301c:	48 8b 40 08          	mov    rax,QWORD PTR [rax+0x8]
  403020:	48 89 85 e8 fe ff ff 	mov    QWORD PTR [rbp-0x118],rax
  403027:	48 8b 85 e8 fe ff ff 	mov    rax,QWORD PTR [rbp-0x118]
  40302e:	48 8b 8d f0 fe ff ff 	mov    rcx,QWORD PTR [rbp-0x110]
  403035:	48 89 41 08          	mov    QWORD PTR [rcx+0x8],rax
  403039:	48 8b 85 f0 fe ff ff 	mov    rax,QWORD PTR [rbp-0x110]
  403040:	48 8b 8d f8 fe ff ff 	mov    rcx,QWORD PTR [rbp-0x108]
  403047:	48 89 41 08          	mov    QWORD PTR [rcx+0x8],rax
  40304b:	48 8b bd f8 fe ff ff 	mov    rdi,QWORD PTR [rbp-0x108]
  403052:	e8 69 fc ff ff       	call   402cc0 <lowfat_mutex_unlock>
  403057:	48 81 c4 30 01 00 00 	add    rsp,0x130
  40305e:	5d                   	pop    rbp
  40305f:	c3                   	ret    

0000000000403060 <lowfat_is_ptr>:
  403060:	55                   	push   rbp
  403061:	48 89 e5             	mov    rbp,rsp
  403064:	48 89 7d f0          	mov    QWORD PTR [rbp-0x10],rdi
  403068:	48 8b 7d f0          	mov    rdi,QWORD PTR [rbp-0x10]
  40306c:	48 89 7d f8          	mov    QWORD PTR [rbp-0x8],rdi
  403070:	48 8b 7d f8          	mov    rdi,QWORD PTR [rbp-0x8]
  403074:	48 c1 ef 24          	shr    rdi,0x24
  403078:	48 89 7d e8          	mov    QWORD PTR [rbp-0x18],rdi
  40307c:	48 8b 7d e8          	mov    rdi,QWORD PTR [rbp-0x18]
  403080:	48 83 ef 01          	sub    rdi,0x1
  403084:	48 83 ff 3e          	cmp    rdi,0x3e
  403088:	0f 96 c0             	setbe  al
  40308b:	24 01                	and    al,0x1
  40308d:	0f b6 c0             	movzx  eax,al
  403090:	5d                   	pop    rbp
  403091:	c3                   	ret    
  403092:	66 66 66 66 66 2e 0f 	data16 data16 data16 data16 nop WORD PTR cs:[rax+rax*1+0x0]
  403099:	1f 84 00 00 00 00 00 

00000000004030a0 <lowfat_is_heap_ptr>:
  4030a0:	55                   	push   rbp
  4030a1:	48 89 e5             	mov    rbp,rsp
  4030a4:	48 83 ec 30          	sub    rsp,0x30
  4030a8:	48 89 7d f0          	mov    QWORD PTR [rbp-0x10],rdi
  4030ac:	48 8b 7d f0          	mov    rdi,QWORD PTR [rbp-0x10]
  4030b0:	48 89 7d f8          	mov    QWORD PTR [rbp-0x8],rdi
  4030b4:	48 8b 7d f8          	mov    rdi,QWORD PTR [rbp-0x8]
  4030b8:	48 c1 ef 24          	shr    rdi,0x24
  4030bc:	48 89 7d e8          	mov    QWORD PTR [rbp-0x18],rdi
  4030c0:	48 8b 7d e8          	mov    rdi,QWORD PTR [rbp-0x18]
  4030c4:	e8 37 f1 ff ff       	call   402200 <lowfat_region>
  4030c9:	48 bf 00 00 ff ff 07 	movabs rdi,0x7ffff0000
  4030d0:	00 00 00 
  4030d3:	48 83 c0 00          	add    rax,0x0
  4030d7:	48 01 f8             	add    rax,rdi
  4030da:	48 89 45 e0          	mov    QWORD PTR [rbp-0x20],rax
  4030de:	48 8b 7d f0          	mov    rdi,QWORD PTR [rbp-0x10]
  4030e2:	e8 79 ff ff ff       	call   403060 <lowfat_is_ptr>
  4030e7:	31 c9                	xor    ecx,ecx
  4030e9:	88 ca                	mov    dl,cl
  4030eb:	a8 01                	test   al,0x1
  4030ed:	88 55 df             	mov    BYTE PTR [rbp-0x21],dl
  4030f0:	0f 85 05 00 00 00    	jne    4030fb <lowfat_is_heap_ptr+0x5b>
  4030f6:	e9 20 00 00 00       	jmp    40311b <lowfat_is_heap_ptr+0x7b>
  4030fb:	48 b8 00 00 ff ff 07 	movabs rax,0x7ffff0000
  403102:	00 00 00 
  403105:	48 8b 4d e0          	mov    rcx,QWORD PTR [rbp-0x20]
  403109:	48 8b 55 f0          	mov    rdx,QWORD PTR [rbp-0x10]
  40310d:	48 29 d1             	sub    rcx,rdx
  403110:	48 39 c1             	cmp    rcx,rax
  403113:	40 0f 96 c6          	setbe  sil
  403117:	40 88 75 df          	mov    BYTE PTR [rbp-0x21],sil
  40311b:	8a 45 df             	mov    al,BYTE PTR [rbp-0x21]
  40311e:	24 01                	and    al,0x1
  403120:	0f b6 c0             	movzx  eax,al
  403123:	48 83 c4 30          	add    rsp,0x30
  403127:	5d                   	pop    rbp
  403128:	c3                   	ret    
  403129:	0f 1f 80 00 00 00 00 	nop    DWORD PTR [rax+0x0]

0000000000403130 <lowfat_is_stack_ptr>:
  403130:	55                   	push   rbp
  403131:	48 89 e5             	mov    rbp,rsp
  403134:	48 83 ec 30          	sub    rsp,0x30
  403138:	48 89 7d f0          	mov    QWORD PTR [rbp-0x10],rdi
  40313c:	48 8b 7d f0          	mov    rdi,QWORD PTR [rbp-0x10]
  403140:	48 89 7d f8          	mov    QWORD PTR [rbp-0x8],rdi
  403144:	48 8b 7d f8          	mov    rdi,QWORD PTR [rbp-0x8]
  403148:	48 c1 ef 24          	shr    rdi,0x24
  40314c:	48 89 7d e8          	mov    QWORD PTR [rbp-0x18],rdi
  403150:	48 8b 7d e8          	mov    rdi,QWORD PTR [rbp-0x18]
  403154:	e8 a7 f0 ff ff       	call   402200 <lowfat_region>
  403159:	48 bf 00 00 00 00 04 	movabs rdi,0x400000000
  403160:	00 00 00 
  403163:	48 b9 00 00 00 00 0c 	movabs rcx,0xc00000000
  40316a:	00 00 00 
  40316d:	48 01 c8             	add    rax,rcx
  403170:	48 01 f8             	add    rax,rdi
  403173:	48 89 45 e0          	mov    QWORD PTR [rbp-0x20],rax
  403177:	48 8b 7d f0          	mov    rdi,QWORD PTR [rbp-0x10]
  40317b:	e8 e0 fe ff ff       	call   403060 <lowfat_is_ptr>
  403180:	31 d2                	xor    edx,edx
  403182:	40 88 d6             	mov    sil,dl
  403185:	a8 01                	test   al,0x1
  403187:	40 88 75 df          	mov    BYTE PTR [rbp-0x21],sil
  40318b:	0f 85 05 00 00 00    	jne    403196 <lowfat_is_stack_ptr+0x66>
  403191:	e9 20 00 00 00       	jmp    4031b6 <lowfat_is_stack_ptr+0x86>
  403196:	48 b8 00 00 00 00 04 	movabs rax,0x400000000
  40319d:	00 00 00 
  4031a0:	48 8b 4d e0          	mov    rcx,QWORD PTR [rbp-0x20]
  4031a4:	48 8b 55 f0          	mov    rdx,QWORD PTR [rbp-0x10]
  4031a8:	48 29 d1             	sub    rcx,rdx
  4031ab:	48 39 c1             	cmp    rcx,rax
  4031ae:	40 0f 96 c6          	setbe  sil
  4031b2:	40 88 75 df          	mov    BYTE PTR [rbp-0x21],sil
  4031b6:	8a 45 df             	mov    al,BYTE PTR [rbp-0x21]
  4031b9:	24 01                	and    al,0x1
  4031bb:	0f b6 c0             	movzx  eax,al
  4031be:	48 83 c4 30          	add    rsp,0x30
  4031c2:	5d                   	pop    rbp
  4031c3:	c3                   	ret    
  4031c4:	66 66 66 2e 0f 1f 84 	data16 data16 nop WORD PTR cs:[rax+rax*1+0x0]
  4031cb:	00 00 00 00 00 

00000000004031d0 <lowfat_error>:
  4031d0:	55                   	push   rbp
  4031d1:	48 89 e5             	mov    rbp,rsp
  4031d4:	48 81 ec 90 01 00 00 	sub    rsp,0x190
  4031db:	84 c0                	test   al,al
  4031dd:	0f 29 bd 20 ff ff ff 	movaps XMMWORD PTR [rbp-0xe0],xmm7
  4031e4:	0f 29 b5 10 ff ff ff 	movaps XMMWORD PTR [rbp-0xf0],xmm6
  4031eb:	0f 29 ad 00 ff ff ff 	movaps XMMWORD PTR [rbp-0x100],xmm5
  4031f2:	0f 29 a5 f0 fe ff ff 	movaps XMMWORD PTR [rbp-0x110],xmm4
  4031f9:	0f 29 9d e0 fe ff ff 	movaps XMMWORD PTR [rbp-0x120],xmm3
  403200:	0f 29 95 d0 fe ff ff 	movaps XMMWORD PTR [rbp-0x130],xmm2
  403207:	0f 29 8d c0 fe ff ff 	movaps XMMWORD PTR [rbp-0x140],xmm1
  40320e:	0f 29 85 b0 fe ff ff 	movaps XMMWORD PTR [rbp-0x150],xmm0
  403215:	48 89 bd a8 fe ff ff 	mov    QWORD PTR [rbp-0x158],rdi
  40321c:	4c 89 8d a0 fe ff ff 	mov    QWORD PTR [rbp-0x160],r9
  403223:	4c 89 85 98 fe ff ff 	mov    QWORD PTR [rbp-0x168],r8
  40322a:	48 89 8d 90 fe ff ff 	mov    QWORD PTR [rbp-0x170],rcx
  403231:	48 89 95 88 fe ff ff 	mov    QWORD PTR [rbp-0x178],rdx
  403238:	48 89 b5 80 fe ff ff 	mov    QWORD PTR [rbp-0x180],rsi
  40323f:	0f 84 5e 00 00 00    	je     4032a3 <lowfat_error+0xd3>
  403245:	0f 28 85 b0 fe ff ff 	movaps xmm0,XMMWORD PTR [rbp-0x150]
  40324c:	0f 29 85 60 ff ff ff 	movaps XMMWORD PTR [rbp-0xa0],xmm0
  403253:	0f 28 8d c0 fe ff ff 	movaps xmm1,XMMWORD PTR [rbp-0x140]
  40325a:	0f 29 8d 70 ff ff ff 	movaps XMMWORD PTR [rbp-0x90],xmm1
  403261:	0f 28 95 d0 fe ff ff 	movaps xmm2,XMMWORD PTR [rbp-0x130]
  403268:	0f 29 55 80          	movaps XMMWORD PTR [rbp-0x80],xmm2
  40326c:	0f 28 9d e0 fe ff ff 	movaps xmm3,XMMWORD PTR [rbp-0x120]
  403273:	0f 29 5d 90          	movaps XMMWORD PTR [rbp-0x70],xmm3
  403277:	0f 28 a5 f0 fe ff ff 	movaps xmm4,XMMWORD PTR [rbp-0x110]
  40327e:	0f 29 65 a0          	movaps XMMWORD PTR [rbp-0x60],xmm4
  403282:	0f 28 ad 00 ff ff ff 	movaps xmm5,XMMWORD PTR [rbp-0x100]
  403289:	0f 29 6d b0          	movaps XMMWORD PTR [rbp-0x50],xmm5
  40328d:	0f 28 b5 10 ff ff ff 	movaps xmm6,XMMWORD PTR [rbp-0xf0]
  403294:	0f 29 75 c0          	movaps XMMWORD PTR [rbp-0x40],xmm6
  403298:	0f 28 bd 20 ff ff ff 	movaps xmm7,XMMWORD PTR [rbp-0xe0]
  40329f:	0f 29 7d d0          	movaps XMMWORD PTR [rbp-0x30],xmm7
  4032a3:	48 8b 85 a0 fe ff ff 	mov    rax,QWORD PTR [rbp-0x160]
  4032aa:	48 89 85 58 ff ff ff 	mov    QWORD PTR [rbp-0xa8],rax
  4032b1:	48 8b 8d 98 fe ff ff 	mov    rcx,QWORD PTR [rbp-0x168]
  4032b8:	48 89 8d 50 ff ff ff 	mov    QWORD PTR [rbp-0xb0],rcx
  4032bf:	48 8b 95 90 fe ff ff 	mov    rdx,QWORD PTR [rbp-0x170]
  4032c6:	48 89 95 48 ff ff ff 	mov    QWORD PTR [rbp-0xb8],rdx
  4032cd:	48 8b b5 88 fe ff ff 	mov    rsi,QWORD PTR [rbp-0x178]
  4032d4:	48 89 b5 40 ff ff ff 	mov    QWORD PTR [rbp-0xc0],rsi
  4032db:	48 8b bd 80 fe ff ff 	mov    rdi,QWORD PTR [rbp-0x180]
  4032e2:	48 89 bd 38 ff ff ff 	mov    QWORD PTR [rbp-0xc8],rdi
  4032e9:	4c 8b 85 a8 fe ff ff 	mov    r8,QWORD PTR [rbp-0x158]
  4032f0:	41 b9 01 00 00 00    	mov    r9d,0x1
  4032f6:	4c 8d 55 e0          	lea    r10,[rbp-0x20]
  4032fa:	4c 89 45 f8          	mov    QWORD PTR [rbp-0x8],r8
  4032fe:	4d 89 d0             	mov    r8,r10
  403301:	4c 8d 9d 30 ff ff ff 	lea    r11,[rbp-0xd0]
  403308:	4d 89 58 10          	mov    QWORD PTR [r8+0x10],r11
  40330c:	4c 8d 5d 10          	lea    r11,[rbp+0x10]
  403310:	4d 89 58 08          	mov    QWORD PTR [r8+0x8],r11
  403314:	41 c7 40 04 30 00 00 	mov    DWORD PTR [r8+0x4],0x30
  40331b:	00 
  40331c:	41 c7 00 08 00 00 00 	mov    DWORD PTR [r8],0x8
  403323:	48 8b 7d f8          	mov    rdi,QWORD PTR [rbp-0x8]
  403327:	be 01 00 00 00       	mov    esi,0x1
  40332c:	4c 89 d2             	mov    rdx,r10
  40332f:	44 89 8d 7c fe ff ff 	mov    DWORD PTR [rbp-0x184],r9d
  403336:	e8 85 2d 00 00       	call   4060c0 <lowfat_message>
  40333b:	48 8d 45 e0          	lea    rax,[rbp-0x20]
  40333f:	48 89 85 70 fe ff ff 	mov    QWORD PTR [rbp-0x190],rax
  403346:	e8 25 de ff ff       	call   401170 <abort@plt>
  40334b:	0f 1f 44 00 00       	nop    DWORD PTR [rax+rax*1+0x0]

0000000000403350 <lowfat_dont_need>:
  403350:	55                   	push   rbp
  403351:	48 89 e5             	mov    rbp,rsp
  403354:	48 83 ec 20          	sub    rsp,0x20
  403358:	b8 04 00 00 00       	mov    eax,0x4
  40335d:	48 89 7d f8          	mov    QWORD PTR [rbp-0x8],rdi
  403361:	48 89 75 f0          	mov    QWORD PTR [rbp-0x10],rsi
  403365:	48 8b 7d f8          	mov    rdi,QWORD PTR [rbp-0x8]
  403369:	48 8b 75 f0          	mov    rsi,QWORD PTR [rbp-0x10]
  40336d:	ba 04 00 00 00       	mov    edx,0x4
  403372:	89 45 ec             	mov    DWORD PTR [rbp-0x14],eax
  403375:	e8 c6 df ff ff       	call   401340 <madvise@plt>
  40337a:	89 45 e8             	mov    DWORD PTR [rbp-0x18],eax
  40337d:	48 83 c4 20          	add    rsp,0x20
  403381:	5d                   	pop    rbp
  403382:	c3                   	ret    
  403383:	66 66 66 66 2e 0f 1f 	data16 data16 data16 nop WORD PTR cs:[rax+rax*1+0x0]
  40338a:	84 00 00 00 00 00 

0000000000403390 <lowfat_realloc>:
  403390:	55                   	push   rbp
  403391:	48 89 e5             	mov    rbp,rsp
  403394:	48 83 ec 60          	sub    rsp,0x60
  403398:	48 89 7d e0          	mov    QWORD PTR [rbp-0x20],rdi
  40339c:	48 89 75 d8          	mov    QWORD PTR [rbp-0x28],rsi
  4033a0:	48 83 7d e0 00       	cmp    QWORD PTR [rbp-0x20],0x0
  4033a5:	0f 84 0b 00 00 00    	je     4033b6 <lowfat_realloc+0x26>
  4033ab:	48 83 7d d8 00       	cmp    QWORD PTR [rbp-0x28],0x0
  4033b0:	0f 85 12 00 00 00    	jne    4033c8 <lowfat_realloc+0x38>
  4033b6:	48 8b 7d d8          	mov    rdi,QWORD PTR [rbp-0x28]
  4033ba:	e8 d1 ef ff ff       	call   402390 <lowfat__Znam>
  4033bf:	48 89 45 e8          	mov    QWORD PTR [rbp-0x18],rax
  4033c3:	e9 11 01 00 00       	jmp    4034d9 <lowfat_realloc+0x149>
  4033c8:	48 8b 7d e0          	mov    rdi,QWORD PTR [rbp-0x20]
  4033cc:	e8 8f fc ff ff       	call   403060 <lowfat_is_ptr>
  4033d1:	a8 01                	test   al,0x1
  4033d3:	0f 85 05 00 00 00    	jne    4033de <lowfat_realloc+0x4e>
  4033d9:	e9 37 00 00 00       	jmp    403415 <lowfat_realloc+0x85>
  4033de:	48 8b 45 e0          	mov    rax,QWORD PTR [rbp-0x20]
  4033e2:	48 89 45 f0          	mov    QWORD PTR [rbp-0x10],rax
  4033e6:	48 8b 45 f0          	mov    rax,QWORD PTR [rbp-0x10]
  4033ea:	48 c1 e8 24          	shr    rax,0x24
  4033ee:	48 8b 7d d8          	mov    rdi,QWORD PTR [rbp-0x28]
  4033f2:	48 89 45 b0          	mov    QWORD PTR [rbp-0x50],rax
  4033f6:	e8 c5 ef ff ff       	call   4023c0 <lowfat_heap_select>
  4033fb:	48 8b 7d b0          	mov    rdi,QWORD PTR [rbp-0x50]
  4033ff:	48 39 c7             	cmp    rdi,rax
  403402:	0f 85 0d 00 00 00    	jne    403415 <lowfat_realloc+0x85>
  403408:	48 8b 45 e0          	mov    rax,QWORD PTR [rbp-0x20]
  40340c:	48 89 45 e8          	mov    QWORD PTR [rbp-0x18],rax
  403410:	e9 c4 00 00 00       	jmp    4034d9 <lowfat_realloc+0x149>
  403415:	48 8b 7d e0          	mov    rdi,QWORD PTR [rbp-0x20]
  403419:	e8 42 fc ff ff       	call   403060 <lowfat_is_ptr>
  40341e:	a8 01                	test   al,0x1
  403420:	0f 85 16 00 00 00    	jne    40343c <lowfat_realloc+0xac>
  403426:	48 8b 7d e0          	mov    rdi,QWORD PTR [rbp-0x20]
  40342a:	48 8b 75 d8          	mov    rsi,QWORD PTR [rbp-0x28]
  40342e:	e8 6d de ff ff       	call   4012a0 <__libc_realloc@plt>
  403433:	48 89 45 e8          	mov    QWORD PTR [rbp-0x18],rax
  403437:	e9 9d 00 00 00       	jmp    4034d9 <lowfat_realloc+0x149>
  40343c:	48 8b 7d d8          	mov    rdi,QWORD PTR [rbp-0x28]
  403440:	e8 4b ef ff ff       	call   402390 <lowfat__Znam>
  403445:	48 89 45 d0          	mov    QWORD PTR [rbp-0x30],rax
  403449:	48 83 7d d0 00       	cmp    QWORD PTR [rbp-0x30],0x0
  40344e:	0f 85 0d 00 00 00    	jne    403461 <lowfat_realloc+0xd1>
  403454:	48 c7 45 e8 00 00 00 	mov    QWORD PTR [rbp-0x18],0x0
  40345b:	00 
  40345c:	e9 78 00 00 00       	jmp    4034d9 <lowfat_realloc+0x149>
  403461:	b8 00 00 20 00       	mov    eax,0x200000
  403466:	89 c1                	mov    ecx,eax
  403468:	48 8b 55 e0          	mov    rdx,QWORD PTR [rbp-0x20]
  40346c:	48 89 55 f8          	mov    QWORD PTR [rbp-0x8],rdx
  403470:	48 8b 55 f8          	mov    rdx,QWORD PTR [rbp-0x8]
  403474:	48 c1 ea 24          	shr    rdx,0x24
  403478:	48 89 55 c0          	mov    QWORD PTR [rbp-0x40],rdx
  40347c:	48 8b 55 c0          	mov    rdx,QWORD PTR [rbp-0x40]
  403480:	48 8b 0c d1          	mov    rcx,QWORD PTR [rcx+rdx*8]
  403484:	48 89 4d b8          	mov    QWORD PTR [rbp-0x48],rcx
  403488:	48 8b 4d d8          	mov    rcx,QWORD PTR [rbp-0x28]
  40348c:	48 3b 4d b8          	cmp    rcx,QWORD PTR [rbp-0x48]
  403490:	0f 83 0d 00 00 00    	jae    4034a3 <lowfat_realloc+0x113>
  403496:	48 8b 45 d8          	mov    rax,QWORD PTR [rbp-0x28]
  40349a:	48 89 45 a8          	mov    QWORD PTR [rbp-0x58],rax
  40349e:	e9 08 00 00 00       	jmp    4034ab <lowfat_realloc+0x11b>
  4034a3:	48 8b 45 b8          	mov    rax,QWORD PTR [rbp-0x48]
  4034a7:	48 89 45 a8          	mov    QWORD PTR [rbp-0x58],rax
  4034ab:	48 8b 45 a8          	mov    rax,QWORD PTR [rbp-0x58]
  4034af:	48 89 45 c8          	mov    QWORD PTR [rbp-0x38],rax
  4034b3:	48 8b 7d d0          	mov    rdi,QWORD PTR [rbp-0x30]
  4034b7:	48 8b 75 e0          	mov    rsi,QWORD PTR [rbp-0x20]
  4034bb:	48 8b 55 c8          	mov    rdx,QWORD PTR [rbp-0x38]
  4034bf:	e8 0c df ff ff       	call   4013d0 <memcpy@plt>
  4034c4:	48 8b 7d e0          	mov    rdi,QWORD PTR [rbp-0x20]
  4034c8:	48 89 45 a0          	mov    QWORD PTR [rbp-0x60],rax
  4034cc:	e8 ff f7 ff ff       	call   402cd0 <lowfat__ZdaPv>
  4034d1:	48 8b 45 d0          	mov    rax,QWORD PTR [rbp-0x30]
  4034d5:	48 89 45 e8          	mov    QWORD PTR [rbp-0x18],rax
  4034d9:	48 8b 45 e8          	mov    rax,QWORD PTR [rbp-0x18]
  4034dd:	48 83 c4 60          	add    rsp,0x60
  4034e1:	5d                   	pop    rbp
  4034e2:	c3                   	ret    
  4034e3:	66 66 66 66 2e 0f 1f 	data16 data16 data16 nop WORD PTR cs:[rax+rax*1+0x0]
  4034ea:	84 00 00 00 00 00 

00000000004034f0 <lowfat_calloc>:
  4034f0:	55                   	push   rbp
  4034f1:	48 89 e5             	mov    rbp,rsp
  4034f4:	48 83 ec 30          	sub    rsp,0x30
  4034f8:	48 89 7d f8          	mov    QWORD PTR [rbp-0x8],rdi
  4034fc:	48 89 75 f0          	mov    QWORD PTR [rbp-0x10],rsi
  403500:	48 8b 75 f8          	mov    rsi,QWORD PTR [rbp-0x8]
  403504:	48 0f af 75 f0       	imul   rsi,QWORD PTR [rbp-0x10]
  403509:	48 89 f7             	mov    rdi,rsi
  40350c:	e8 7f ee ff ff       	call   402390 <lowfat__Znam>
  403511:	31 c9                	xor    ecx,ecx
  403513:	48 89 45 e8          	mov    QWORD PTR [rbp-0x18],rax
  403517:	48 8b 7d e8          	mov    rdi,QWORD PTR [rbp-0x18]
  40351b:	48 8b 45 f8          	mov    rax,QWORD PTR [rbp-0x8]
  40351f:	48 0f af 45 f0       	imul   rax,QWORD PTR [rbp-0x10]
  403524:	31 f6                	xor    esi,esi
  403526:	48 89 c2             	mov    rdx,rax
  403529:	89 4d e4             	mov    DWORD PTR [rbp-0x1c],ecx
  40352c:	e8 ef db ff ff       	call   401120 <memset@plt>
  403531:	48 8b 55 e8          	mov    rdx,QWORD PTR [rbp-0x18]
  403535:	48 89 45 d8          	mov    QWORD PTR [rbp-0x28],rax
  403539:	48 89 d0             	mov    rax,rdx
  40353c:	48 83 c4 30          	add    rsp,0x30
  403540:	5d                   	pop    rbp
  403541:	c3                   	ret    
  403542:	66 66 66 66 66 2e 0f 	data16 data16 data16 data16 nop WORD PTR cs:[rax+rax*1+0x0]
  403549:	1f 84 00 00 00 00 00 

0000000000403550 <lowfat_posix_memalign>:
  403550:	55                   	push   rbp
  403551:	48 89 e5             	mov    rbp,rsp
  403554:	48 83 ec 40          	sub    rsp,0x40
  403558:	48 89 7d f8          	mov    QWORD PTR [rbp-0x8],rdi
  40355c:	48 89 75 f0          	mov    QWORD PTR [rbp-0x10],rsi
  403560:	48 89 55 e8          	mov    QWORD PTR [rbp-0x18],rdx
  403564:	48 83 7d f0 08       	cmp    QWORD PTR [rbp-0x10],0x8
  403569:	0f 82 19 00 00 00    	jb     403588 <lowfat_posix_memalign+0x38>
  40356f:	48 8b 45 f0          	mov    rax,QWORD PTR [rbp-0x10]
  403573:	48 8b 4d f0          	mov    rcx,QWORD PTR [rbp-0x10]
  403577:	48 83 e9 01          	sub    rcx,0x1
  40357b:	48 21 c8             	and    rax,rcx
  40357e:	48 83 f8 00          	cmp    rax,0x0
  403582:	0f 84 2a 00 00 00    	je     4035b2 <lowfat_posix_memalign+0x62>
  403588:	b8 16 00 00 00       	mov    eax,0x16
  40358d:	bf 16 00 00 00       	mov    edi,0x16
  403592:	89 45 cc             	mov    DWORD PTR [rbp-0x34],eax
  403595:	e8 16 dd ff ff       	call   4012b0 <strerror@plt>
  40359a:	48 bf 10 a6 40 00 00 	movabs rdi,0x40a610
  4035a1:	00 00 00 
  4035a4:	31 c9                	xor    ecx,ecx
  4035a6:	88 ca                	mov    dl,cl
  4035a8:	48 89 c6             	mov    rsi,rax
  4035ab:	88 d0                	mov    al,dl
  4035ad:	e8 1e fc ff ff       	call   4031d0 <lowfat_error>
  4035b2:	48 83 7d f0 10       	cmp    QWORD PTR [rbp-0x10],0x10
  4035b7:	0f 85 15 00 00 00    	jne    4035d2 <lowfat_posix_memalign+0x82>
  4035bd:	48 8b 7d e8          	mov    rdi,QWORD PTR [rbp-0x18]
  4035c1:	e8 ca ed ff ff       	call   402390 <lowfat__Znam>
  4035c6:	48 8b 7d f8          	mov    rdi,QWORD PTR [rbp-0x8]
  4035ca:	48 89 07             	mov    QWORD PTR [rdi],rax
  4035cd:	e9 9f 00 00 00       	jmp    403671 <lowfat_posix_memalign+0x121>
  4035d2:	48 8b 45 e8          	mov    rax,QWORD PTR [rbp-0x18]
  4035d6:	48 3b 45 f0          	cmp    rax,QWORD PTR [rbp-0x10]
  4035da:	0f 83 1c 00 00 00    	jae    4035fc <lowfat_posix_memalign+0xac>
  4035e0:	48 8b 45 f0          	mov    rax,QWORD PTR [rbp-0x10]
  4035e4:	48 83 e8 01          	sub    rax,0x1
  4035e8:	48 89 c7             	mov    rdi,rax
  4035eb:	e8 a0 ed ff ff       	call   402390 <lowfat__Znam>
  4035f0:	48 8b 7d f8          	mov    rdi,QWORD PTR [rbp-0x8]
  4035f4:	48 89 07             	mov    QWORD PTR [rdi],rax
  4035f7:	e9 70 00 00 00       	jmp    40366c <lowfat_posix_memalign+0x11c>
  4035fc:	48 8b 45 e8          	mov    rax,QWORD PTR [rbp-0x18]
  403600:	48 03 45 f0          	add    rax,QWORD PTR [rbp-0x10]
  403604:	48 83 e8 01          	sub    rax,0x1
  403608:	48 89 45 e0          	mov    QWORD PTR [rbp-0x20],rax
  40360c:	48 8b 7d e0          	mov    rdi,QWORD PTR [rbp-0x20]
  403610:	e8 7b ed ff ff       	call   402390 <lowfat__Znam>
  403615:	48 89 45 d8          	mov    QWORD PTR [rbp-0x28],rax
  403619:	48 8b 45 d8          	mov    rax,QWORD PTR [rbp-0x28]
  40361d:	31 c9                	xor    ecx,ecx
  40361f:	89 ca                	mov    edx,ecx
  403621:	48 f7 75 f0          	div    QWORD PTR [rbp-0x10]
  403625:	48 89 55 d0          	mov    QWORD PTR [rbp-0x30],rdx
  403629:	48 83 7d d0 00       	cmp    QWORD PTR [rbp-0x30],0x0
  40362e:	0f 84 11 00 00 00    	je     403645 <lowfat_posix_memalign+0xf5>
  403634:	48 8b 45 f0          	mov    rax,QWORD PTR [rbp-0x10]
  403638:	48 2b 45 d0          	sub    rax,QWORD PTR [rbp-0x30]
  40363c:	48 89 45 c0          	mov    QWORD PTR [rbp-0x40],rax
  403640:	e9 08 00 00 00       	jmp    40364d <lowfat_posix_memalign+0xfd>
  403645:	48 8b 45 d0          	mov    rax,QWORD PTR [rbp-0x30]
  403649:	48 89 45 c0          	mov    QWORD PTR [rbp-0x40],rax
  40364d:	48 8b 45 c0          	mov    rax,QWORD PTR [rbp-0x40]
  403651:	48 89 45 d0          	mov    QWORD PTR [rbp-0x30],rax
  403655:	48 8b 45 d0          	mov    rax,QWORD PTR [rbp-0x30]
  403659:	48 03 45 d8          	add    rax,QWORD PTR [rbp-0x28]
  40365d:	48 89 45 d8          	mov    QWORD PTR [rbp-0x28],rax
  403661:	48 8b 45 d8          	mov    rax,QWORD PTR [rbp-0x28]
  403665:	48 8b 4d f8          	mov    rcx,QWORD PTR [rbp-0x8]
  403669:	48 89 01             	mov    QWORD PTR [rcx],rax
  40366c:	e9 00 00 00 00       	jmp    403671 <lowfat_posix_memalign+0x121>
  403671:	31 c0                	xor    eax,eax
  403673:	48 83 c4 40          	add    rsp,0x40
  403677:	5d                   	pop    rbp
  403678:	c3                   	ret    
  403679:	0f 1f 80 00 00 00 00 	nop    DWORD PTR [rax+0x0]

0000000000403680 <lowfat_aligned_alloc>:
  403680:	55                   	push   rbp
  403681:	48 89 e5             	mov    rbp,rsp
  403684:	48 83 ec 30          	sub    rsp,0x30
  403688:	48 8d 45 e8          	lea    rax,[rbp-0x18]
  40368c:	48 89 7d f8          	mov    QWORD PTR [rbp-0x8],rdi
  403690:	48 89 75 f0          	mov    QWORD PTR [rbp-0x10],rsi
  403694:	48 c7 45 e8 00 00 00 	mov    QWORD PTR [rbp-0x18],0x0
  40369b:	00 
  40369c:	48 8b 75 f8          	mov    rsi,QWORD PTR [rbp-0x8]
  4036a0:	48 8b 55 f0          	mov    rdx,QWORD PTR [rbp-0x10]
  4036a4:	48 8d 7d e8          	lea    rdi,[rbp-0x18]
  4036a8:	48 89 45 e0          	mov    QWORD PTR [rbp-0x20],rax
  4036ac:	e8 9f fe ff ff       	call   403550 <lowfat_posix_memalign>
  4036b1:	48 8b 55 e8          	mov    rdx,QWORD PTR [rbp-0x18]
  4036b5:	89 45 dc             	mov    DWORD PTR [rbp-0x24],eax
  4036b8:	48 89 d0             	mov    rax,rdx
  4036bb:	48 83 c4 30          	add    rsp,0x30
  4036bf:	5d                   	pop    rbp
  4036c0:	c3                   	ret    
  4036c1:	66 66 66 66 66 66 2e 	data16 data16 data16 data16 data16 nop WORD PTR cs:[rax+rax*1+0x0]
  4036c8:	0f 1f 84 00 00 00 00 
  4036cf:	00 

00000000004036d0 <lowfat_valloc>:
  4036d0:	55                   	push   rbp
  4036d1:	48 89 e5             	mov    rbp,rsp
  4036d4:	48 83 ec 10          	sub    rsp,0x10
  4036d8:	b8 00 10 00 00       	mov    eax,0x1000
  4036dd:	89 c1                	mov    ecx,eax
  4036df:	48 89 7d f8          	mov    QWORD PTR [rbp-0x8],rdi
  4036e3:	48 8b 75 f8          	mov    rsi,QWORD PTR [rbp-0x8]
  4036e7:	b8 00 10 00 00       	mov    eax,0x1000
  4036ec:	89 c7                	mov    edi,eax
  4036ee:	48 89 4d f0          	mov    QWORD PTR [rbp-0x10],rcx
  4036f2:	e8 89 ff ff ff       	call   403680 <lowfat_aligned_alloc>
  4036f7:	48 83 c4 10          	add    rsp,0x10
  4036fb:	5d                   	pop    rbp
  4036fc:	c3                   	ret    
  4036fd:	0f 1f 00             	nop    DWORD PTR [rax]

0000000000403700 <lowfat_pvalloc>:
  403700:	55                   	push   rbp
  403701:	48 89 e5             	mov    rbp,rsp
  403704:	48 83 ec 20          	sub    rsp,0x20
  403708:	b8 00 10 00 00       	mov    eax,0x1000
  40370d:	89 c1                	mov    ecx,eax
  40370f:	48 89 7d f8          	mov    QWORD PTR [rbp-0x8],rdi
  403713:	48 8b 7d f8          	mov    rdi,QWORD PTR [rbp-0x8]
  403717:	48 83 ef 01          	sub    rdi,0x1
  40371b:	48 c1 ef 0c          	shr    rdi,0xc
  40371f:	48 83 c7 01          	add    rdi,0x1
  403723:	48 c1 e7 0c          	shl    rdi,0xc
  403727:	b8 00 10 00 00       	mov    eax,0x1000
  40372c:	89 c2                	mov    edx,eax
  40372e:	48 89 7d f0          	mov    QWORD PTR [rbp-0x10],rdi
  403732:	48 89 d7             	mov    rdi,rdx
  403735:	48 8b 75 f0          	mov    rsi,QWORD PTR [rbp-0x10]
  403739:	48 89 4d e8          	mov    QWORD PTR [rbp-0x18],rcx
  40373d:	e8 3e ff ff ff       	call   403680 <lowfat_aligned_alloc>
  403742:	48 83 c4 20          	add    rsp,0x20
  403746:	5d                   	pop    rbp
  403747:	c3                   	ret    
  403748:	0f 1f 84 00 00 00 00 	nop    DWORD PTR [rax+rax*1+0x0]
  40374f:	00 

0000000000403750 <lowfat_strdup>:
  403750:	55                   	push   rbp
  403751:	48 89 e5             	mov    rbp,rsp
  403754:	48 81 ec 10 01 00 00 	sub    rsp,0x110
  40375b:	b8 00 00 20 00       	mov    eax,0x200000
  403760:	89 c1                	mov    ecx,eax
  403762:	48 89 bd 30 ff ff ff 	mov    QWORD PTR [rbp-0xd0],rdi
  403769:	48 8b bd 30 ff ff ff 	mov    rdi,QWORD PTR [rbp-0xd0]
  403770:	48 89 bd 38 ff ff ff 	mov    QWORD PTR [rbp-0xc8],rdi
  403777:	48 8b bd 38 ff ff ff 	mov    rdi,QWORD PTR [rbp-0xc8]
  40377e:	48 89 bd 48 ff ff ff 	mov    QWORD PTR [rbp-0xb8],rdi
  403785:	48 8b bd 48 ff ff ff 	mov    rdi,QWORD PTR [rbp-0xb8]
  40378c:	48 89 bd 50 ff ff ff 	mov    QWORD PTR [rbp-0xb0],rdi
  403793:	48 8b bd 50 ff ff ff 	mov    rdi,QWORD PTR [rbp-0xb0]
  40379a:	48 c1 ef 24          	shr    rdi,0x24
  40379e:	48 89 bd 40 ff ff ff 	mov    QWORD PTR [rbp-0xc0],rdi
  4037a5:	48 8b bd 40 ff ff ff 	mov    rdi,QWORD PTR [rbp-0xc0]
  4037ac:	48 8b 3c fd 00 00 20 	mov    rdi,QWORD PTR [rdi*8+0x200000]
  4037b3:	00 
  4037b4:	48 8b 95 38 ff ff ff 	mov    rdx,QWORD PTR [rbp-0xc8]
  4037bb:	48 89 95 68 ff ff ff 	mov    QWORD PTR [rbp-0x98],rdx
  4037c2:	48 8b b5 68 ff ff ff 	mov    rsi,QWORD PTR [rbp-0x98]
  4037c9:	48 89 b5 70 ff ff ff 	mov    QWORD PTR [rbp-0x90],rsi
  4037d0:	48 8b b5 70 ff ff ff 	mov    rsi,QWORD PTR [rbp-0x90]
  4037d7:	48 c1 ee 24          	shr    rsi,0x24
  4037db:	48 89 b5 60 ff ff ff 	mov    QWORD PTR [rbp-0xa0],rsi
  4037e2:	48 8b b5 68 ff ff ff 	mov    rsi,QWORD PTR [rbp-0x98]
  4037e9:	48 89 75 98          	mov    QWORD PTR [rbp-0x68],rsi
  4037ed:	48 8b 75 98          	mov    rsi,QWORD PTR [rbp-0x68]
  4037f1:	48 89 75 a0          	mov    QWORD PTR [rbp-0x60],rsi
  4037f5:	48 8b 75 a0          	mov    rsi,QWORD PTR [rbp-0x60]
  4037f9:	48 c1 ee 24          	shr    rsi,0x24
  4037fd:	48 89 75 90          	mov    QWORD PTR [rbp-0x70],rsi
  403801:	48 8b 75 90          	mov    rsi,QWORD PTR [rbp-0x70]
  403805:	48 8b 04 f5 00 00 30 	mov    rax,QWORD PTR [rsi*8+0x300000]
  40380c:	00 
  40380d:	48 8b 75 98          	mov    rsi,QWORD PTR [rbp-0x68]
  403811:	48 89 95 10 ff ff ff 	mov    QWORD PTR [rbp-0xf0],rdx
  403818:	48 f7 e6             	mul    rsi
  40381b:	48 89 55 88          	mov    QWORD PTR [rbp-0x78],rdx
  40381f:	48 89 45 80          	mov    QWORD PTR [rbp-0x80],rax
  403823:	48 8b 45 88          	mov    rax,QWORD PTR [rbp-0x78]
  403827:	48 89 85 78 ff ff ff 	mov    QWORD PTR [rbp-0x88],rax
  40382e:	48 8b 85 78 ff ff ff 	mov    rax,QWORD PTR [rbp-0x88]
  403835:	48 89 85 58 ff ff ff 	mov    QWORD PTR [rbp-0xa8],rax
  40383c:	48 8b 85 58 ff ff ff 	mov    rax,QWORD PTR [rbp-0xa8]
  403843:	48 8b 95 60 ff ff ff 	mov    rdx,QWORD PTR [rbp-0xa0]
  40384a:	48 0f af 04 d1       	imul   rax,QWORD PTR [rcx+rdx*8]
  40384f:	48 8b 8d 10 ff ff ff 	mov    rcx,QWORD PTR [rbp-0xf0]
  403856:	48 29 c1             	sub    rcx,rax
  403859:	48 29 cf             	sub    rdi,rcx
  40385c:	48 89 bd 28 ff ff ff 	mov    QWORD PTR [rbp-0xd8],rdi
  403863:	48 8b bd 30 ff ff ff 	mov    rdi,QWORD PTR [rbp-0xd0]
  40386a:	48 8b b5 28 ff ff ff 	mov    rsi,QWORD PTR [rbp-0xd8]
  403871:	e8 ea d9 ff ff       	call   401260 <strnlen@plt>
  403876:	48 89 85 20 ff ff ff 	mov    QWORD PTR [rbp-0xe0],rax
  40387d:	48 8b 85 20 ff ff ff 	mov    rax,QWORD PTR [rbp-0xe0]
  403884:	48 3b 85 28 ff ff ff 	cmp    rax,QWORD PTR [rbp-0xd8]
  40388b:	0f 85 b3 00 00 00    	jne    403944 <lowfat_strdup+0x1f4>
  403891:	b8 04 00 00 00       	mov    eax,0x4
  403896:	b9 00 00 20 00       	mov    ecx,0x200000
  40389b:	89 ca                	mov    edx,ecx
  40389d:	48 8b b5 30 ff ff ff 	mov    rsi,QWORD PTR [rbp-0xd0]
  4038a4:	48 8b bd 28 ff ff ff 	mov    rdi,QWORD PTR [rbp-0xd8]
  4038ab:	49 89 f0             	mov    r8,rsi
  4038ae:	49 01 f8             	add    r8,rdi
  4038b1:	48 89 75 b8          	mov    QWORD PTR [rbp-0x48],rsi
  4038b5:	48 8b 75 b8          	mov    rsi,QWORD PTR [rbp-0x48]
  4038b9:	48 89 75 c0          	mov    QWORD PTR [rbp-0x40],rsi
  4038bd:	48 8b 75 c0          	mov    rsi,QWORD PTR [rbp-0x40]
  4038c1:	48 c1 ee 24          	shr    rsi,0x24
  4038c5:	48 89 75 b0          	mov    QWORD PTR [rbp-0x50],rsi
  4038c9:	48 8b 75 b8          	mov    rsi,QWORD PTR [rbp-0x48]
  4038cd:	48 89 75 f0          	mov    QWORD PTR [rbp-0x10],rsi
  4038d1:	48 8b 75 f0          	mov    rsi,QWORD PTR [rbp-0x10]
  4038d5:	48 89 75 f8          	mov    QWORD PTR [rbp-0x8],rsi
  4038d9:	48 8b 75 f8          	mov    rsi,QWORD PTR [rbp-0x8]
  4038dd:	48 c1 ee 24          	shr    rsi,0x24
  4038e1:	48 89 75 e8          	mov    QWORD PTR [rbp-0x18],rsi
  4038e5:	48 8b 75 e8          	mov    rsi,QWORD PTR [rbp-0x18]
  4038e9:	48 8b 34 f5 00 00 30 	mov    rsi,QWORD PTR [rsi*8+0x300000]
  4038f0:	00 
  4038f1:	48 8b 7d f0          	mov    rdi,QWORD PTR [rbp-0x10]
  4038f5:	89 85 0c ff ff ff    	mov    DWORD PTR [rbp-0xf4],eax
  4038fb:	48 89 f0             	mov    rax,rsi
  4038fe:	48 89 95 00 ff ff ff 	mov    QWORD PTR [rbp-0x100],rdx
  403905:	48 f7 e7             	mul    rdi
  403908:	48 89 55 d8          	mov    QWORD PTR [rbp-0x28],rdx
  40390c:	48 89 45 d0          	mov    QWORD PTR [rbp-0x30],rax
  403910:	48 8b 45 d8          	mov    rax,QWORD PTR [rbp-0x28]
  403914:	48 89 45 c8          	mov    QWORD PTR [rbp-0x38],rax
  403918:	48 8b 45 c8          	mov    rax,QWORD PTR [rbp-0x38]
  40391c:	48 89 45 a8          	mov    QWORD PTR [rbp-0x58],rax
  403920:	48 8b 45 a8          	mov    rax,QWORD PTR [rbp-0x58]
  403924:	48 8b 55 b0          	mov    rdx,QWORD PTR [rbp-0x50]
  403928:	48 8b b5 00 ff ff ff 	mov    rsi,QWORD PTR [rbp-0x100]
  40392f:	48 0f af 04 d6       	imul   rax,QWORD PTR [rsi+rdx*8]
  403934:	bf 04 00 00 00       	mov    edi,0x4
  403939:	4c 89 c6             	mov    rsi,r8
  40393c:	48 89 c2             	mov    rdx,rax
  40393f:	e8 5c 00 00 00       	call   4039a0 <lowfat_oob_error>
  403944:	48 8b 85 20 ff ff ff 	mov    rax,QWORD PTR [rbp-0xe0]
  40394b:	48 83 c0 01          	add    rax,0x1
  40394f:	48 89 c7             	mov    rdi,rax
  403952:	e8 39 ea ff ff       	call   402390 <lowfat__Znam>
  403957:	48 89 85 18 ff ff ff 	mov    QWORD PTR [rbp-0xe8],rax
  40395e:	48 8b bd 18 ff ff ff 	mov    rdi,QWORD PTR [rbp-0xe8]
  403965:	48 8b b5 30 ff ff ff 	mov    rsi,QWORD PTR [rbp-0xd0]
  40396c:	48 8b 85 20 ff ff ff 	mov    rax,QWORD PTR [rbp-0xe0]
  403973:	48 83 c0 01          	add    rax,0x1
  403977:	48 89 c2             	mov    rdx,rax
  40397a:	e8 51 da ff ff       	call   4013d0 <memcpy@plt>
  40397f:	48 8b 95 18 ff ff ff 	mov    rdx,QWORD PTR [rbp-0xe8]
  403986:	48 89 85 f8 fe ff ff 	mov    QWORD PTR [rbp-0x108],rax
  40398d:	48 89 d0             	mov    rax,rdx
  403990:	48 81 c4 10 01 00 00 	add    rsp,0x110
  403997:	5d                   	pop    rbp
  403998:	c3                   	ret    
  403999:	0f 1f 80 00 00 00 00 	nop    DWORD PTR [rax+0x0]

00000000004039a0 <lowfat_oob_error>:
  4039a0:	55                   	push   rbp
  4039a1:	48 89 e5             	mov    rbp,rsp
  4039a4:	48 81 ec 80 00 00 00 	sub    rsp,0x80
  4039ab:	89 7d cc             	mov    DWORD PTR [rbp-0x34],edi
  4039ae:	48 89 75 c0          	mov    QWORD PTR [rbp-0x40],rsi
  4039b2:	48 89 55 b8          	mov    QWORD PTR [rbp-0x48],rdx
  4039b6:	8b 7d cc             	mov    edi,DWORD PTR [rbp-0x34]
  4039b9:	e8 92 1b 00 00       	call   405550 <lowfat_error_kind>
  4039be:	48 89 45 b0          	mov    QWORD PTR [rbp-0x50],rax
  4039c2:	48 8b 45 c0          	mov    rax,QWORD PTR [rbp-0x40]
  4039c6:	48 8b 55 b8          	mov    rdx,QWORD PTR [rbp-0x48]
  4039ca:	48 29 d0             	sub    rax,rdx
  4039cd:	48 89 45 a8          	mov    QWORD PTR [rbp-0x58],rax
  4039d1:	48 83 7d a8 00       	cmp    QWORD PTR [rbp-0x58],0x0
  4039d6:	0f 8e 36 00 00 00    	jle    403a12 <lowfat_oob_error+0x72>
  4039dc:	b8 00 00 20 00       	mov    eax,0x200000
  4039e1:	89 c1                	mov    ecx,eax
  4039e3:	48 8b 55 b8          	mov    rdx,QWORD PTR [rbp-0x48]
  4039e7:	48 89 55 d8          	mov    QWORD PTR [rbp-0x28],rdx
  4039eb:	48 8b 55 d8          	mov    rdx,QWORD PTR [rbp-0x28]
  4039ef:	48 89 55 e0          	mov    QWORD PTR [rbp-0x20],rdx
  4039f3:	48 8b 55 e0          	mov    rdx,QWORD PTR [rbp-0x20]
  4039f7:	48 c1 ea 24          	shr    rdx,0x24
  4039fb:	48 89 55 d0          	mov    QWORD PTR [rbp-0x30],rdx
  4039ff:	48 8b 55 d0          	mov    rdx,QWORD PTR [rbp-0x30]
  403a03:	48 8b 0c d1          	mov    rcx,QWORD PTR [rcx+rdx*8]
  403a07:	48 8b 55 a8          	mov    rdx,QWORD PTR [rbp-0x58]
  403a0b:	48 29 ca             	sub    rdx,rcx
  403a0e:	48 89 55 a8          	mov    QWORD PTR [rbp-0x58],rdx
  403a12:	48 8b 75 b0          	mov    rsi,QWORD PTR [rbp-0x50]
  403a16:	48 8b 45 c0          	mov    rax,QWORD PTR [rbp-0x40]
  403a1a:	48 89 c7             	mov    rdi,rax
  403a1d:	48 89 75 a0          	mov    QWORD PTR [rbp-0x60],rsi
  403a21:	48 89 45 98          	mov    QWORD PTR [rbp-0x68],rax
  403a25:	e8 26 1c 00 00       	call   405650 <lowfat_kind>
  403a2a:	48 8b 75 b8          	mov    rsi,QWORD PTR [rbp-0x48]
  403a2e:	48 89 75 f0          	mov    QWORD PTR [rbp-0x10],rsi
  403a32:	48 8b 7d f0          	mov    rdi,QWORD PTR [rbp-0x10]
  403a36:	48 89 7d f8          	mov    QWORD PTR [rbp-0x8],rdi
  403a3a:	48 8b 7d f8          	mov    rdi,QWORD PTR [rbp-0x8]
  403a3e:	48 c1 ef 24          	shr    rdi,0x24
  403a42:	48 89 7d e8          	mov    QWORD PTR [rbp-0x18],rdi
  403a46:	48 8b 7d e8          	mov    rdi,QWORD PTR [rbp-0x18]
  403a4a:	4c 8b 0c fd 00 00 20 	mov    r9,QWORD PTR [rdi*8+0x200000]
  403a51:	00 
  403a52:	48 8b 7d a8          	mov    rdi,QWORD PTR [rbp-0x58]
  403a56:	48 85 ff             	test   rdi,rdi
  403a59:	48 bf 31 a8 40 00 00 	movabs rdi,0x40a831
  403a60:	00 00 00 
  403a63:	48 b9 3b a8 40 00 00 	movabs rcx,0x40a83b
  403a6a:	00 00 00 
  403a6d:	48 0f 48 cf          	cmovs  rcx,rdi
  403a71:	48 8b 7d a8          	mov    rdi,QWORD PTR [rbp-0x58]
  403a75:	48 89 e2             	mov    rdx,rsp
  403a78:	48 89 7a 08          	mov    QWORD PTR [rdx+0x8],rdi
  403a7c:	48 89 0a             	mov    QWORD PTR [rdx],rcx
  403a7f:	48 bf c1 a7 40 00 00 	movabs rdi,0x40a7c1
  403a86:	00 00 00 
  403a89:	45 31 c0             	xor    r8d,r8d
  403a8c:	45 88 c2             	mov    r10b,r8b
  403a8f:	48 8b 4d a0          	mov    rcx,QWORD PTR [rbp-0x60]
  403a93:	48 89 75 90          	mov    QWORD PTR [rbp-0x70],rsi
  403a97:	48 89 ce             	mov    rsi,rcx
  403a9a:	48 8b 55 98          	mov    rdx,QWORD PTR [rbp-0x68]
  403a9e:	48 89 c1             	mov    rcx,rax
  403aa1:	4c 8b 45 90          	mov    r8,QWORD PTR [rbp-0x70]
  403aa5:	44 88 d0             	mov    al,r10b
  403aa8:	e8 23 f7 ff ff       	call   4031d0 <lowfat_error>
  403aad:	48 83 ec 10          	sub    rsp,0x10
  403ab1:	66 66 66 66 66 66 2e 	data16 data16 data16 data16 data16 nop WORD PTR cs:[rax+rax*1+0x0]
  403ab8:	0f 1f 84 00 00 00 00 
  403abf:	00 

0000000000403ac0 <lowfat_strndup>:
  403ac0:	55                   	push   rbp
  403ac1:	48 89 e5             	mov    rbp,rsp
  403ac4:	48 81 ec 20 01 00 00 	sub    rsp,0x120
  403acb:	b8 00 00 20 00       	mov    eax,0x200000
  403ad0:	89 c1                	mov    ecx,eax
  403ad2:	48 89 bd 30 ff ff ff 	mov    QWORD PTR [rbp-0xd0],rdi
  403ad9:	48 89 b5 28 ff ff ff 	mov    QWORD PTR [rbp-0xd8],rsi
  403ae0:	48 8b b5 30 ff ff ff 	mov    rsi,QWORD PTR [rbp-0xd0]
  403ae7:	48 89 b5 38 ff ff ff 	mov    QWORD PTR [rbp-0xc8],rsi
  403aee:	48 8b b5 38 ff ff ff 	mov    rsi,QWORD PTR [rbp-0xc8]
  403af5:	48 89 b5 48 ff ff ff 	mov    QWORD PTR [rbp-0xb8],rsi
  403afc:	48 8b b5 48 ff ff ff 	mov    rsi,QWORD PTR [rbp-0xb8]
  403b03:	48 89 b5 50 ff ff ff 	mov    QWORD PTR [rbp-0xb0],rsi
  403b0a:	48 8b b5 50 ff ff ff 	mov    rsi,QWORD PTR [rbp-0xb0]
  403b11:	48 c1 ee 24          	shr    rsi,0x24
  403b15:	48 89 b5 40 ff ff ff 	mov    QWORD PTR [rbp-0xc0],rsi
  403b1c:	48 8b b5 40 ff ff ff 	mov    rsi,QWORD PTR [rbp-0xc0]
  403b23:	48 8b 34 f5 00 00 20 	mov    rsi,QWORD PTR [rsi*8+0x200000]
  403b2a:	00 
  403b2b:	48 8b bd 38 ff ff ff 	mov    rdi,QWORD PTR [rbp-0xc8]
  403b32:	48 89 bd 68 ff ff ff 	mov    QWORD PTR [rbp-0x98],rdi
  403b39:	48 8b 95 68 ff ff ff 	mov    rdx,QWORD PTR [rbp-0x98]
  403b40:	48 89 95 70 ff ff ff 	mov    QWORD PTR [rbp-0x90],rdx
  403b47:	48 8b 95 70 ff ff ff 	mov    rdx,QWORD PTR [rbp-0x90]
  403b4e:	48 c1 ea 24          	shr    rdx,0x24
  403b52:	48 89 95 60 ff ff ff 	mov    QWORD PTR [rbp-0xa0],rdx
  403b59:	48 8b 95 68 ff ff ff 	mov    rdx,QWORD PTR [rbp-0x98]
  403b60:	48 89 55 98          	mov    QWORD PTR [rbp-0x68],rdx
  403b64:	48 8b 55 98          	mov    rdx,QWORD PTR [rbp-0x68]
  403b68:	48 89 55 a0          	mov    QWORD PTR [rbp-0x60],rdx
  403b6c:	48 8b 55 a0          	mov    rdx,QWORD PTR [rbp-0x60]
  403b70:	48 c1 ea 24          	shr    rdx,0x24
  403b74:	48 89 55 90          	mov    QWORD PTR [rbp-0x70],rdx
  403b78:	48 8b 55 90          	mov    rdx,QWORD PTR [rbp-0x70]
  403b7c:	48 8b 04 d5 00 00 30 	mov    rax,QWORD PTR [rdx*8+0x300000]
  403b83:	00 
  403b84:	48 8b 55 98          	mov    rdx,QWORD PTR [rbp-0x68]
  403b88:	48 f7 e2             	mul    rdx
  403b8b:	48 89 55 88          	mov    QWORD PTR [rbp-0x78],rdx
  403b8f:	48 89 45 80          	mov    QWORD PTR [rbp-0x80],rax
  403b93:	48 8b 45 88          	mov    rax,QWORD PTR [rbp-0x78]
  403b97:	48 89 85 78 ff ff ff 	mov    QWORD PTR [rbp-0x88],rax
  403b9e:	48 8b 85 78 ff ff ff 	mov    rax,QWORD PTR [rbp-0x88]
  403ba5:	48 89 85 58 ff ff ff 	mov    QWORD PTR [rbp-0xa8],rax
  403bac:	48 8b 85 58 ff ff ff 	mov    rax,QWORD PTR [rbp-0xa8]
  403bb3:	48 8b 95 60 ff ff ff 	mov    rdx,QWORD PTR [rbp-0xa0]
  403bba:	48 0f af 04 d1       	imul   rax,QWORD PTR [rcx+rdx*8]
  403bbf:	48 29 c7             	sub    rdi,rax
  403bc2:	48 29 fe             	sub    rsi,rdi
  403bc5:	48 89 b5 20 ff ff ff 	mov    QWORD PTR [rbp-0xe0],rsi
  403bcc:	48 8b bd 30 ff ff ff 	mov    rdi,QWORD PTR [rbp-0xd0]
  403bd3:	48 8b 85 28 ff ff ff 	mov    rax,QWORD PTR [rbp-0xd8]
  403bda:	48 3b 85 20 ff ff ff 	cmp    rax,QWORD PTR [rbp-0xe0]
  403be1:	48 89 bd 08 ff ff ff 	mov    QWORD PTR [rbp-0xf8],rdi
  403be8:	0f 86 13 00 00 00    	jbe    403c01 <lowfat_strndup+0x141>
  403bee:	48 8b 85 20 ff ff ff 	mov    rax,QWORD PTR [rbp-0xe0]
  403bf5:	48 89 85 00 ff ff ff 	mov    QWORD PTR [rbp-0x100],rax
  403bfc:	e9 0e 00 00 00       	jmp    403c0f <lowfat_strndup+0x14f>
  403c01:	48 8b 85 28 ff ff ff 	mov    rax,QWORD PTR [rbp-0xd8]
  403c08:	48 89 85 00 ff ff ff 	mov    QWORD PTR [rbp-0x100],rax
  403c0f:	48 8b 85 00 ff ff ff 	mov    rax,QWORD PTR [rbp-0x100]
  403c16:	48 8b bd 08 ff ff ff 	mov    rdi,QWORD PTR [rbp-0xf8]
  403c1d:	48 89 c6             	mov    rsi,rax
  403c20:	e8 3b d6 ff ff       	call   401260 <strnlen@plt>
  403c25:	48 89 85 18 ff ff ff 	mov    QWORD PTR [rbp-0xe8],rax
  403c2c:	48 8b 85 18 ff ff ff 	mov    rax,QWORD PTR [rbp-0xe8]
  403c33:	48 3b 85 20 ff ff ff 	cmp    rax,QWORD PTR [rbp-0xe0]
  403c3a:	0f 85 b3 00 00 00    	jne    403cf3 <lowfat_strndup+0x233>
  403c40:	b8 04 00 00 00       	mov    eax,0x4
  403c45:	b9 00 00 20 00       	mov    ecx,0x200000
  403c4a:	89 ca                	mov    edx,ecx
  403c4c:	48 8b b5 30 ff ff ff 	mov    rsi,QWORD PTR [rbp-0xd0]
  403c53:	48 8b bd 20 ff ff ff 	mov    rdi,QWORD PTR [rbp-0xe0]
  403c5a:	49 89 f0             	mov    r8,rsi
  403c5d:	49 01 f8             	add    r8,rdi
  403c60:	48 89 75 b8          	mov    QWORD PTR [rbp-0x48],rsi
  403c64:	48 8b 75 b8          	mov    rsi,QWORD PTR [rbp-0x48]
  403c68:	48 89 75 c0          	mov    QWORD PTR [rbp-0x40],rsi
  403c6c:	48 8b 75 c0          	mov    rsi,QWORD PTR [rbp-0x40]
  403c70:	48 c1 ee 24          	shr    rsi,0x24
  403c74:	48 89 75 b0          	mov    QWORD PTR [rbp-0x50],rsi
  403c78:	48 8b 75 b8          	mov    rsi,QWORD PTR [rbp-0x48]
  403c7c:	48 89 75 f0          	mov    QWORD PTR [rbp-0x10],rsi
  403c80:	48 8b 75 f0          	mov    rsi,QWORD PTR [rbp-0x10]
  403c84:	48 89 75 f8          	mov    QWORD PTR [rbp-0x8],rsi
  403c88:	48 8b 75 f8          	mov    rsi,QWORD PTR [rbp-0x8]
  403c8c:	48 c1 ee 24          	shr    rsi,0x24
  403c90:	48 89 75 e8          	mov    QWORD PTR [rbp-0x18],rsi
  403c94:	48 8b 75 e8          	mov    rsi,QWORD PTR [rbp-0x18]
  403c98:	48 8b 34 f5 00 00 30 	mov    rsi,QWORD PTR [rsi*8+0x300000]
  403c9f:	00 
  403ca0:	48 8b 7d f0          	mov    rdi,QWORD PTR [rbp-0x10]
  403ca4:	89 85 fc fe ff ff    	mov    DWORD PTR [rbp-0x104],eax
  403caa:	48 89 f0             	mov    rax,rsi
  403cad:	48 89 95 f0 fe ff ff 	mov    QWORD PTR [rbp-0x110],rdx
  403cb4:	48 f7 e7             	mul    rdi
  403cb7:	48 89 55 d8          	mov    QWORD PTR [rbp-0x28],rdx
  403cbb:	48 89 45 d0          	mov    QWORD PTR [rbp-0x30],rax
  403cbf:	48 8b 45 d8          	mov    rax,QWORD PTR [rbp-0x28]
  403cc3:	48 89 45 c8          	mov    QWORD PTR [rbp-0x38],rax
  403cc7:	48 8b 45 c8          	mov    rax,QWORD PTR [rbp-0x38]
  403ccb:	48 89 45 a8          	mov    QWORD PTR [rbp-0x58],rax
  403ccf:	48 8b 45 a8          	mov    rax,QWORD PTR [rbp-0x58]
  403cd3:	48 8b 55 b0          	mov    rdx,QWORD PTR [rbp-0x50]
  403cd7:	48 8b b5 f0 fe ff ff 	mov    rsi,QWORD PTR [rbp-0x110]
  403cde:	48 0f af 04 d6       	imul   rax,QWORD PTR [rsi+rdx*8]
  403ce3:	bf 04 00 00 00       	mov    edi,0x4
  403ce8:	4c 89 c6             	mov    rsi,r8
  403ceb:	48 89 c2             	mov    rdx,rax
  403cee:	e8 ad fc ff ff       	call   4039a0 <lowfat_oob_error>
  403cf3:	48 8b 85 18 ff ff ff 	mov    rax,QWORD PTR [rbp-0xe8]
  403cfa:	48 83 c0 01          	add    rax,0x1
  403cfe:	48 89 c7             	mov    rdi,rax
  403d01:	e8 8a e6 ff ff       	call   402390 <lowfat__Znam>
  403d06:	48 89 85 10 ff ff ff 	mov    QWORD PTR [rbp-0xf0],rax
  403d0d:	48 8b bd 10 ff ff ff 	mov    rdi,QWORD PTR [rbp-0xf0]
  403d14:	48 8b b5 30 ff ff ff 	mov    rsi,QWORD PTR [rbp-0xd0]
  403d1b:	48 8b 95 18 ff ff ff 	mov    rdx,QWORD PTR [rbp-0xe8]
  403d22:	e8 a9 d6 ff ff       	call   4013d0 <memcpy@plt>
  403d27:	48 8b 95 10 ff ff ff 	mov    rdx,QWORD PTR [rbp-0xf0]
  403d2e:	48 8b b5 18 ff ff ff 	mov    rsi,QWORD PTR [rbp-0xe8]
  403d35:	c6 04 32 00          	mov    BYTE PTR [rdx+rsi*1],0x0
  403d39:	48 8b 95 10 ff ff ff 	mov    rdx,QWORD PTR [rbp-0xf0]
  403d40:	48 89 85 e8 fe ff ff 	mov    QWORD PTR [rbp-0x118],rax
  403d47:	48 89 d0             	mov    rax,rdx
  403d4a:	48 81 c4 20 01 00 00 	add    rsp,0x120
  403d51:	5d                   	pop    rbp
  403d52:	c3                   	ret    
  403d53:	66 66 66 66 2e 0f 1f 	data16 data16 data16 nop WORD PTR cs:[rax+rax*1+0x0]
  403d5a:	84 00 00 00 00 00 

0000000000403d60 <malloc_usable_size>:
  403d60:	55                   	push   rbp
  403d61:	48 89 e5             	mov    rbp,rsp
  403d64:	48 83 ec 30          	sub    rsp,0x30
  403d68:	48 89 7d d8          	mov    QWORD PTR [rbp-0x28],rdi
  403d6c:	48 8b 7d d8          	mov    rdi,QWORD PTR [rbp-0x28]
  403d70:	e8 eb f2 ff ff       	call   403060 <lowfat_is_ptr>
  403d75:	a8 01                	test   al,0x1
  403d77:	0f 85 05 00 00 00    	jne    403d82 <malloc_usable_size+0x22>
  403d7d:	e9 34 00 00 00       	jmp    403db6 <malloc_usable_size+0x56>
  403d82:	b8 00 00 20 00       	mov    eax,0x200000
  403d87:	89 c1                	mov    ecx,eax
  403d89:	48 8b 55 d8          	mov    rdx,QWORD PTR [rbp-0x28]
  403d8d:	48 89 55 f0          	mov    QWORD PTR [rbp-0x10],rdx
  403d91:	48 8b 55 f0          	mov    rdx,QWORD PTR [rbp-0x10]
  403d95:	48 89 55 f8          	mov    QWORD PTR [rbp-0x8],rdx
  403d99:	48 8b 55 f8          	mov    rdx,QWORD PTR [rbp-0x8]
  403d9d:	48 c1 ea 24          	shr    rdx,0x24
  403da1:	48 89 55 e8          	mov    QWORD PTR [rbp-0x18],rdx
  403da5:	48 8b 55 e8          	mov    rdx,QWORD PTR [rbp-0x18]
  403da9:	48 8b 0c d1          	mov    rcx,QWORD PTR [rcx+rdx*8]
  403dad:	48 89 4d e0          	mov    QWORD PTR [rbp-0x20],rcx
  403db1:	e9 78 00 00 00       	jmp    403e2e <malloc_usable_size+0xce>
  403db6:	48 b8 10 e2 60 00 00 	movabs rax,0x60e210
  403dbd:	00 00 00 
  403dc0:	48 8b 00             	mov    rax,QWORD PTR [rax]
  403dc3:	48 83 f8 00          	cmp    rax,0x0
  403dc7:	0f 85 4a 00 00 00    	jne    403e17 <malloc_usable_size+0xb7>
  403dcd:	48 be 35 a6 40 00 00 	movabs rsi,0x40a635
  403dd4:	00 00 00 
  403dd7:	48 c7 c7 ff ff ff ff 	mov    rdi,0xffffffffffffffff
  403dde:	e8 8d d5 ff ff       	call   401370 <dlsym@plt>
  403de3:	48 be 10 e2 60 00 00 	movabs rsi,0x60e210
  403dea:	00 00 00 
  403ded:	48 89 06             	mov    QWORD PTR [rsi],rax
  403df0:	48 8b 06             	mov    rax,QWORD PTR [rsi]
  403df3:	48 83 f8 00          	cmp    rax,0x0
  403df7:	0f 85 15 00 00 00    	jne    403e12 <malloc_usable_size+0xb2>
  403dfd:	48 bf 48 a6 40 00 00 	movabs rdi,0x40a648
  403e04:	00 00 00 
  403e07:	31 c0                	xor    eax,eax
  403e09:	88 c1                	mov    cl,al
  403e0b:	88 c8                	mov    al,cl
  403e0d:	e8 be f3 ff ff       	call   4031d0 <lowfat_error>
  403e12:	e9 00 00 00 00       	jmp    403e17 <malloc_usable_size+0xb7>
  403e17:	48 b8 10 e2 60 00 00 	movabs rax,0x60e210
  403e1e:	00 00 00 
  403e21:	48 8b 00             	mov    rax,QWORD PTR [rax]
  403e24:	48 8b 7d d8          	mov    rdi,QWORD PTR [rbp-0x28]
  403e28:	ff d0                	call   rax
  403e2a:	48 89 45 e0          	mov    QWORD PTR [rbp-0x20],rax
  403e2e:	48 8b 45 e0          	mov    rax,QWORD PTR [rbp-0x20]
  403e32:	48 83 c4 30          	add    rsp,0x30
  403e36:	5d                   	pop    rbp
  403e37:	c3                   	ret    
  403e38:	0f 1f 84 00 00 00 00 	nop    DWORD PTR [rax+rax*1+0x0]
  403e3f:	00 

0000000000403e40 <lowfat_memset>:
  403e40:	55                   	push   rbp
  403e41:	48 89 e5             	mov    rbp,rsp
  403e44:	48 81 ec 20 01 00 00 	sub    rsp,0x120
  403e4b:	b8 00 00 20 00       	mov    eax,0x200000
  403e50:	89 c1                	mov    ecx,eax
  403e52:	48 89 bd 30 ff ff ff 	mov    QWORD PTR [rbp-0xd0],rdi
  403e59:	89 b5 2c ff ff ff    	mov    DWORD PTR [rbp-0xd4],esi
  403e5f:	48 89 95 20 ff ff ff 	mov    QWORD PTR [rbp-0xe0],rdx
  403e66:	48 8b 95 30 ff ff ff 	mov    rdx,QWORD PTR [rbp-0xd0]
  403e6d:	48 89 95 38 ff ff ff 	mov    QWORD PTR [rbp-0xc8],rdx
  403e74:	48 8b 95 38 ff ff ff 	mov    rdx,QWORD PTR [rbp-0xc8]
  403e7b:	48 89 95 48 ff ff ff 	mov    QWORD PTR [rbp-0xb8],rdx
  403e82:	48 8b 95 48 ff ff ff 	mov    rdx,QWORD PTR [rbp-0xb8]
  403e89:	48 89 95 50 ff ff ff 	mov    QWORD PTR [rbp-0xb0],rdx
  403e90:	48 8b 95 50 ff ff ff 	mov    rdx,QWORD PTR [rbp-0xb0]
  403e97:	48 c1 ea 24          	shr    rdx,0x24
  403e9b:	48 89 95 40 ff ff ff 	mov    QWORD PTR [rbp-0xc0],rdx
  403ea2:	48 8b 95 40 ff ff ff 	mov    rdx,QWORD PTR [rbp-0xc0]
  403ea9:	48 8b 14 d5 00 00 20 	mov    rdx,QWORD PTR [rdx*8+0x200000]
  403eb0:	00 
  403eb1:	48 8b bd 38 ff ff ff 	mov    rdi,QWORD PTR [rbp-0xc8]
  403eb8:	48 89 bd 68 ff ff ff 	mov    QWORD PTR [rbp-0x98],rdi
  403ebf:	4c 8b 85 68 ff ff ff 	mov    r8,QWORD PTR [rbp-0x98]
  403ec6:	4c 89 85 70 ff ff ff 	mov    QWORD PTR [rbp-0x90],r8
  403ecd:	4c 8b 85 70 ff ff ff 	mov    r8,QWORD PTR [rbp-0x90]
  403ed4:	49 c1 e8 24          	shr    r8,0x24
  403ed8:	4c 89 85 60 ff ff ff 	mov    QWORD PTR [rbp-0xa0],r8
  403edf:	4c 8b 85 68 ff ff ff 	mov    r8,QWORD PTR [rbp-0x98]
  403ee6:	4c 89 45 98          	mov    QWORD PTR [rbp-0x68],r8
  403eea:	4c 8b 45 98          	mov    r8,QWORD PTR [rbp-0x68]
  403eee:	4c 89 45 a0          	mov    QWORD PTR [rbp-0x60],r8
  403ef2:	4c 8b 45 a0          	mov    r8,QWORD PTR [rbp-0x60]
  403ef6:	49 c1 e8 24          	shr    r8,0x24
  403efa:	4c 89 45 90          	mov    QWORD PTR [rbp-0x70],r8
  403efe:	4c 8b 45 90          	mov    r8,QWORD PTR [rbp-0x70]
  403f02:	4a 8b 04 c5 00 00 30 	mov    rax,QWORD PTR [r8*8+0x300000]
  403f09:	00 
  403f0a:	4c 8b 45 98          	mov    r8,QWORD PTR [rbp-0x68]
  403f0e:	48 89 95 10 ff ff ff 	mov    QWORD PTR [rbp-0xf0],rdx
  403f15:	49 f7 e0             	mul    r8
  403f18:	48 89 55 88          	mov    QWORD PTR [rbp-0x78],rdx
  403f1c:	48 89 45 80          	mov    QWORD PTR [rbp-0x80],rax
  403f20:	48 8b 45 88          	mov    rax,QWORD PTR [rbp-0x78]
  403f24:	48 89 85 78 ff ff ff 	mov    QWORD PTR [rbp-0x88],rax
  403f2b:	48 8b 85 78 ff ff ff 	mov    rax,QWORD PTR [rbp-0x88]
  403f32:	48 89 85 58 ff ff ff 	mov    QWORD PTR [rbp-0xa8],rax
  403f39:	48 8b 85 58 ff ff ff 	mov    rax,QWORD PTR [rbp-0xa8]
  403f40:	48 8b 95 60 ff ff ff 	mov    rdx,QWORD PTR [rbp-0xa0]
  403f47:	48 0f af 04 d1       	imul   rax,QWORD PTR [rcx+rdx*8]
  403f4c:	48 29 c7             	sub    rdi,rax
  403f4f:	48 8b 85 10 ff ff ff 	mov    rax,QWORD PTR [rbp-0xf0]
  403f56:	48 29 f8             	sub    rax,rdi
  403f59:	48 89 85 18 ff ff ff 	mov    QWORD PTR [rbp-0xe8],rax
  403f60:	48 8b 85 18 ff ff ff 	mov    rax,QWORD PTR [rbp-0xe8]
  403f67:	48 3b 85 20 ff ff ff 	cmp    rax,QWORD PTR [rbp-0xe0]
  403f6e:	0f 83 b3 00 00 00    	jae    404027 <lowfat_memset+0x1e7>
  403f74:	b8 03 00 00 00       	mov    eax,0x3
  403f79:	b9 00 00 20 00       	mov    ecx,0x200000
  403f7e:	89 ca                	mov    edx,ecx
  403f80:	48 8b b5 30 ff ff ff 	mov    rsi,QWORD PTR [rbp-0xd0]
  403f87:	48 8b bd 18 ff ff ff 	mov    rdi,QWORD PTR [rbp-0xe8]
  403f8e:	49 89 f0             	mov    r8,rsi
  403f91:	49 01 f8             	add    r8,rdi
  403f94:	48 89 75 b8          	mov    QWORD PTR [rbp-0x48],rsi
  403f98:	48 8b 75 b8          	mov    rsi,QWORD PTR [rbp-0x48]
  403f9c:	48 89 75 c0          	mov    QWORD PTR [rbp-0x40],rsi
  403fa0:	48 8b 75 c0          	mov    rsi,QWORD PTR [rbp-0x40]
  403fa4:	48 c1 ee 24          	shr    rsi,0x24
  403fa8:	48 89 75 b0          	mov    QWORD PTR [rbp-0x50],rsi
  403fac:	48 8b 75 b8          	mov    rsi,QWORD PTR [rbp-0x48]
  403fb0:	48 89 75 f0          	mov    QWORD PTR [rbp-0x10],rsi
  403fb4:	48 8b 75 f0          	mov    rsi,QWORD PTR [rbp-0x10]
  403fb8:	48 89 75 f8          	mov    QWORD PTR [rbp-0x8],rsi
  403fbc:	48 8b 75 f8          	mov    rsi,QWORD PTR [rbp-0x8]
  403fc0:	48 c1 ee 24          	shr    rsi,0x24
  403fc4:	48 89 75 e8          	mov    QWORD PTR [rbp-0x18],rsi
  403fc8:	48 8b 75 e8          	mov    rsi,QWORD PTR [rbp-0x18]
  403fcc:	48 8b 34 f5 00 00 30 	mov    rsi,QWORD PTR [rsi*8+0x300000]
  403fd3:	00 
  403fd4:	48 8b 7d f0          	mov    rdi,QWORD PTR [rbp-0x10]
  403fd8:	89 85 0c ff ff ff    	mov    DWORD PTR [rbp-0xf4],eax
  403fde:	48 89 f0             	mov    rax,rsi
  403fe1:	48 89 95 00 ff ff ff 	mov    QWORD PTR [rbp-0x100],rdx
  403fe8:	48 f7 e7             	mul    rdi
  403feb:	48 89 55 d8          	mov    QWORD PTR [rbp-0x28],rdx
  403fef:	48 89 45 d0          	mov    QWORD PTR [rbp-0x30],rax
  403ff3:	48 8b 45 d8          	mov    rax,QWORD PTR [rbp-0x28]
  403ff7:	48 89 45 c8          	mov    QWORD PTR [rbp-0x38],rax
  403ffb:	48 8b 45 c8          	mov    rax,QWORD PTR [rbp-0x38]
  403fff:	48 89 45 a8          	mov    QWORD PTR [rbp-0x58],rax
  404003:	48 8b 45 a8          	mov    rax,QWORD PTR [rbp-0x58]
  404007:	48 8b 55 b0          	mov    rdx,QWORD PTR [rbp-0x50]
  40400b:	48 8b b5 00 ff ff ff 	mov    rsi,QWORD PTR [rbp-0x100]
  404012:	48 0f af 04 d6       	imul   rax,QWORD PTR [rsi+rdx*8]
  404017:	bf 03 00 00 00       	mov    edi,0x3
  40401c:	4c 89 c6             	mov    rsi,r8
  40401f:	48 89 c2             	mov    rdx,rax
  404022:	e8 79 f9 ff ff       	call   4039a0 <lowfat_oob_error>
  404027:	48 8b 85 30 ff ff ff 	mov    rax,QWORD PTR [rbp-0xd0]
  40402e:	8b 8d 2c ff ff ff    	mov    ecx,DWORD PTR [rbp-0xd4]
  404034:	88 ca                	mov    dl,cl
  404036:	48 8b b5 20 ff ff ff 	mov    rsi,QWORD PTR [rbp-0xe0]
  40403d:	0f b6 ca             	movzx  ecx,dl
  404040:	48 89 c7             	mov    rdi,rax
  404043:	48 89 b5 f8 fe ff ff 	mov    QWORD PTR [rbp-0x108],rsi
  40404a:	89 ce                	mov    esi,ecx
  40404c:	48 8b 95 f8 fe ff ff 	mov    rdx,QWORD PTR [rbp-0x108]
  404053:	48 89 85 f0 fe ff ff 	mov    QWORD PTR [rbp-0x110],rax
  40405a:	e8 c1 d0 ff ff       	call   401120 <memset@plt>
  40405f:	48 8b 95 f0 fe ff ff 	mov    rdx,QWORD PTR [rbp-0x110]
  404066:	48 89 85 e8 fe ff ff 	mov    QWORD PTR [rbp-0x118],rax
  40406d:	48 89 d0             	mov    rax,rdx
  404070:	48 81 c4 20 01 00 00 	add    rsp,0x120
  404077:	5d                   	pop    rbp
  404078:	c3                   	ret    
  404079:	0f 1f 80 00 00 00 00 	nop    DWORD PTR [rax+0x0]

0000000000404080 <lowfat_memmove>:
  404080:	55                   	push   rbp
  404081:	48 89 e5             	mov    rbp,rsp
  404084:	48 81 ec f0 01 00 00 	sub    rsp,0x1f0
  40408b:	b8 00 00 20 00       	mov    eax,0x200000
  404090:	89 c1                	mov    ecx,eax
  404092:	48 89 bd 70 fe ff ff 	mov    QWORD PTR [rbp-0x190],rdi
  404099:	48 89 b5 68 fe ff ff 	mov    QWORD PTR [rbp-0x198],rsi
  4040a0:	48 89 95 60 fe ff ff 	mov    QWORD PTR [rbp-0x1a0],rdx
  4040a7:	48 8b 95 68 fe ff ff 	mov    rdx,QWORD PTR [rbp-0x198]
  4040ae:	48 89 95 78 fe ff ff 	mov    QWORD PTR [rbp-0x188],rdx
  4040b5:	48 8b 95 78 fe ff ff 	mov    rdx,QWORD PTR [rbp-0x188]
  4040bc:	48 89 95 88 fe ff ff 	mov    QWORD PTR [rbp-0x178],rdx
  4040c3:	48 8b 95 88 fe ff ff 	mov    rdx,QWORD PTR [rbp-0x178]
  4040ca:	48 89 95 90 fe ff ff 	mov    QWORD PTR [rbp-0x170],rdx
  4040d1:	48 8b 95 90 fe ff ff 	mov    rdx,QWORD PTR [rbp-0x170]
  4040d8:	48 c1 ea 24          	shr    rdx,0x24
  4040dc:	48 89 95 80 fe ff ff 	mov    QWORD PTR [rbp-0x180],rdx
  4040e3:	48 8b 95 80 fe ff ff 	mov    rdx,QWORD PTR [rbp-0x180]
  4040ea:	48 8b 14 d5 00 00 20 	mov    rdx,QWORD PTR [rdx*8+0x200000]
  4040f1:	00 
  4040f2:	48 8b b5 78 fe ff ff 	mov    rsi,QWORD PTR [rbp-0x188]
  4040f9:	48 89 b5 a8 fe ff ff 	mov    QWORD PTR [rbp-0x158],rsi
  404100:	48 8b bd a8 fe ff ff 	mov    rdi,QWORD PTR [rbp-0x158]
  404107:	48 89 bd b0 fe ff ff 	mov    QWORD PTR [rbp-0x150],rdi
  40410e:	48 8b bd b0 fe ff ff 	mov    rdi,QWORD PTR [rbp-0x150]
  404115:	48 c1 ef 24          	shr    rdi,0x24
  404119:	48 89 bd a0 fe ff ff 	mov    QWORD PTR [rbp-0x160],rdi
  404120:	48 8b bd a8 fe ff ff 	mov    rdi,QWORD PTR [rbp-0x158]
  404127:	48 89 bd d8 fe ff ff 	mov    QWORD PTR [rbp-0x128],rdi
  40412e:	48 8b bd d8 fe ff ff 	mov    rdi,QWORD PTR [rbp-0x128]
  404135:	48 89 bd e0 fe ff ff 	mov    QWORD PTR [rbp-0x120],rdi
  40413c:	48 8b bd e0 fe ff ff 	mov    rdi,QWORD PTR [rbp-0x120]
  404143:	48 c1 ef 24          	shr    rdi,0x24
  404147:	48 89 bd d0 fe ff ff 	mov    QWORD PTR [rbp-0x130],rdi
  40414e:	48 8b bd d0 fe ff ff 	mov    rdi,QWORD PTR [rbp-0x130]
  404155:	48 8b 04 fd 00 00 30 	mov    rax,QWORD PTR [rdi*8+0x300000]
  40415c:	00 
  40415d:	48 8b bd d8 fe ff ff 	mov    rdi,QWORD PTR [rbp-0x128]
  404164:	48 89 95 48 fe ff ff 	mov    QWORD PTR [rbp-0x1b8],rdx
  40416b:	48 f7 e7             	mul    rdi
  40416e:	48 89 95 c8 fe ff ff 	mov    QWORD PTR [rbp-0x138],rdx
  404175:	48 89 85 c0 fe ff ff 	mov    QWORD PTR [rbp-0x140],rax
  40417c:	48 8b 85 c8 fe ff ff 	mov    rax,QWORD PTR [rbp-0x138]
  404183:	48 89 85 b8 fe ff ff 	mov    QWORD PTR [rbp-0x148],rax
  40418a:	48 8b 85 b8 fe ff ff 	mov    rax,QWORD PTR [rbp-0x148]
  404191:	48 89 85 98 fe ff ff 	mov    QWORD PTR [rbp-0x168],rax
  404198:	48 8b 85 98 fe ff ff 	mov    rax,QWORD PTR [rbp-0x168]
  40419f:	48 8b 95 a0 fe ff ff 	mov    rdx,QWORD PTR [rbp-0x160]
  4041a6:	48 0f af 04 d1       	imul   rax,QWORD PTR [rcx+rdx*8]
  4041ab:	48 29 c6             	sub    rsi,rax
  4041ae:	48 8b 85 48 fe ff ff 	mov    rax,QWORD PTR [rbp-0x1b8]
  4041b5:	48 29 f0             	sub    rax,rsi
  4041b8:	48 89 85 58 fe ff ff 	mov    QWORD PTR [rbp-0x1a8],rax
  4041bf:	48 8b 85 58 fe ff ff 	mov    rax,QWORD PTR [rbp-0x1a8]
  4041c6:	48 3b 85 60 fe ff ff 	cmp    rax,QWORD PTR [rbp-0x1a0]
  4041cd:	0f 83 f2 00 00 00    	jae    4042c5 <lowfat_memmove+0x245>
  4041d3:	b8 02 00 00 00       	mov    eax,0x2
  4041d8:	b9 00 00 20 00       	mov    ecx,0x200000
  4041dd:	89 ca                	mov    edx,ecx
  4041df:	48 8b b5 68 fe ff ff 	mov    rsi,QWORD PTR [rbp-0x198]
  4041e6:	48 8b bd 58 fe ff ff 	mov    rdi,QWORD PTR [rbp-0x1a8]
  4041ed:	49 89 f0             	mov    r8,rsi
  4041f0:	49 01 f8             	add    r8,rdi
  4041f3:	48 89 b5 f8 fe ff ff 	mov    QWORD PTR [rbp-0x108],rsi
  4041fa:	48 8b b5 f8 fe ff ff 	mov    rsi,QWORD PTR [rbp-0x108]
  404201:	48 89 b5 00 ff ff ff 	mov    QWORD PTR [rbp-0x100],rsi
  404208:	48 8b b5 00 ff ff ff 	mov    rsi,QWORD PTR [rbp-0x100]
  40420f:	48 c1 ee 24          	shr    rsi,0x24
  404213:	48 89 b5 f0 fe ff ff 	mov    QWORD PTR [rbp-0x110],rsi
  40421a:	48 8b b5 f8 fe ff ff 	mov    rsi,QWORD PTR [rbp-0x108]
  404221:	48 89 b5 28 ff ff ff 	mov    QWORD PTR [rbp-0xd8],rsi
  404228:	48 8b b5 28 ff ff ff 	mov    rsi,QWORD PTR [rbp-0xd8]
  40422f:	48 89 b5 30 ff ff ff 	mov    QWORD PTR [rbp-0xd0],rsi
  404236:	48 8b b5 30 ff ff ff 	mov    rsi,QWORD PTR [rbp-0xd0]
  40423d:	48 c1 ee 24          	shr    rsi,0x24
  404241:	48 89 b5 20 ff ff ff 	mov    QWORD PTR [rbp-0xe0],rsi
  404248:	48 8b b5 20 ff ff ff 	mov    rsi,QWORD PTR [rbp-0xe0]
  40424f:	48 8b 34 f5 00 00 30 	mov    rsi,QWORD PTR [rsi*8+0x300000]
  404256:	00 
  404257:	48 8b bd 28 ff ff ff 	mov    rdi,QWORD PTR [rbp-0xd8]
  40425e:	89 85 44 fe ff ff    	mov    DWORD PTR [rbp-0x1bc],eax
  404264:	48 89 f0             	mov    rax,rsi
  404267:	48 89 95 38 fe ff ff 	mov    QWORD PTR [rbp-0x1c8],rdx
  40426e:	48 f7 e7             	mul    rdi
  404271:	48 89 95 18 ff ff ff 	mov    QWORD PTR [rbp-0xe8],rdx
  404278:	48 89 85 10 ff ff ff 	mov    QWORD PTR [rbp-0xf0],rax
  40427f:	48 8b 85 18 ff ff ff 	mov    rax,QWORD PTR [rbp-0xe8]
  404286:	48 89 85 08 ff ff ff 	mov    QWORD PTR [rbp-0xf8],rax
  40428d:	48 8b 85 08 ff ff ff 	mov    rax,QWORD PTR [rbp-0xf8]
  404294:	48 89 85 e8 fe ff ff 	mov    QWORD PTR [rbp-0x118],rax
  40429b:	48 8b 85 e8 fe ff ff 	mov    rax,QWORD PTR [rbp-0x118]
  4042a2:	48 8b 95 f0 fe ff ff 	mov    rdx,QWORD PTR [rbp-0x110]
  4042a9:	48 8b b5 38 fe ff ff 	mov    rsi,QWORD PTR [rbp-0x1c8]
  4042b0:	48 0f af 04 d6       	imul   rax,QWORD PTR [rsi+rdx*8]
  4042b5:	bf 02 00 00 00       	mov    edi,0x2
  4042ba:	4c 89 c6             	mov    rsi,r8
  4042bd:	48 89 c2             	mov    rdx,rax
  4042c0:	e8 db f6 ff ff       	call   4039a0 <lowfat_oob_error>
  4042c5:	b8 00 00 20 00       	mov    eax,0x200000
  4042ca:	89 c1                	mov    ecx,eax
  4042cc:	48 8b 95 70 fe ff ff 	mov    rdx,QWORD PTR [rbp-0x190]
  4042d3:	48 89 55 88          	mov    QWORD PTR [rbp-0x78],rdx
  4042d7:	48 8b 55 88          	mov    rdx,QWORD PTR [rbp-0x78]
  4042db:	48 89 55 98          	mov    QWORD PTR [rbp-0x68],rdx
  4042df:	48 8b 55 98          	mov    rdx,QWORD PTR [rbp-0x68]
  4042e3:	48 89 55 a0          	mov    QWORD PTR [rbp-0x60],rdx
  4042e7:	48 8b 55 a0          	mov    rdx,QWORD PTR [rbp-0x60]
  4042eb:	48 c1 ea 24          	shr    rdx,0x24
  4042ef:	48 89 55 90          	mov    QWORD PTR [rbp-0x70],rdx
  4042f3:	48 8b 55 90          	mov    rdx,QWORD PTR [rbp-0x70]
  4042f7:	48 8b 14 d5 00 00 20 	mov    rdx,QWORD PTR [rdx*8+0x200000]
  4042fe:	00 
  4042ff:	48 8b 75 88          	mov    rsi,QWORD PTR [rbp-0x78]
  404303:	48 89 75 b8          	mov    QWORD PTR [rbp-0x48],rsi
  404307:	48 8b 7d b8          	mov    rdi,QWORD PTR [rbp-0x48]
  40430b:	48 89 7d c0          	mov    QWORD PTR [rbp-0x40],rdi
  40430f:	48 8b 7d c0          	mov    rdi,QWORD PTR [rbp-0x40]
  404313:	48 c1 ef 24          	shr    rdi,0x24
  404317:	48 89 7d b0          	mov    QWORD PTR [rbp-0x50],rdi
  40431b:	48 8b 7d b8          	mov    rdi,QWORD PTR [rbp-0x48]
  40431f:	48 89 7d f0          	mov    QWORD PTR [rbp-0x10],rdi
  404323:	48 8b 7d f0          	mov    rdi,QWORD PTR [rbp-0x10]
  404327:	48 89 7d f8          	mov    QWORD PTR [rbp-0x8],rdi
  40432b:	48 8b 7d f8          	mov    rdi,QWORD PTR [rbp-0x8]
  40432f:	48 c1 ef 24          	shr    rdi,0x24
  404333:	48 89 7d e8          	mov    QWORD PTR [rbp-0x18],rdi
  404337:	48 8b 7d e8          	mov    rdi,QWORD PTR [rbp-0x18]
  40433b:	48 8b 04 fd 00 00 30 	mov    rax,QWORD PTR [rdi*8+0x300000]
  404342:	00 
  404343:	48 8b 7d f0          	mov    rdi,QWORD PTR [rbp-0x10]
  404347:	48 89 95 30 fe ff ff 	mov    QWORD PTR [rbp-0x1d0],rdx
  40434e:	48 f7 e7             	mul    rdi
  404351:	48 89 55 d8          	mov    QWORD PTR [rbp-0x28],rdx
  404355:	48 89 45 d0          	mov    QWORD PTR [rbp-0x30],rax
  404359:	48 8b 45 d8          	mov    rax,QWORD PTR [rbp-0x28]
  40435d:	48 89 45 c8          	mov    QWORD PTR [rbp-0x38],rax
  404361:	48 8b 45 c8          	mov    rax,QWORD PTR [rbp-0x38]
  404365:	48 89 45 a8          	mov    QWORD PTR [rbp-0x58],rax
  404369:	48 8b 45 a8          	mov    rax,QWORD PTR [rbp-0x58]
  40436d:	48 8b 55 b0          	mov    rdx,QWORD PTR [rbp-0x50]
  404371:	48 0f af 04 d1       	imul   rax,QWORD PTR [rcx+rdx*8]
  404376:	48 29 c6             	sub    rsi,rax
  404379:	48 8b 85 30 fe ff ff 	mov    rax,QWORD PTR [rbp-0x1d0]
  404380:	48 29 f0             	sub    rax,rsi
  404383:	48 89 85 50 fe ff ff 	mov    QWORD PTR [rbp-0x1b0],rax
  40438a:	48 8b 85 50 fe ff ff 	mov    rax,QWORD PTR [rbp-0x1b0]
  404391:	48 3b 85 60 fe ff ff 	cmp    rax,QWORD PTR [rbp-0x1a0]
  404398:	0f 83 ec 00 00 00    	jae    40448a <lowfat_memmove+0x40a>
  40439e:	b8 02 00 00 00       	mov    eax,0x2
  4043a3:	b9 00 00 20 00       	mov    ecx,0x200000
  4043a8:	89 ca                	mov    edx,ecx
  4043aa:	48 8b b5 70 fe ff ff 	mov    rsi,QWORD PTR [rbp-0x190]
  4043b1:	48 8b bd 50 fe ff ff 	mov    rdi,QWORD PTR [rbp-0x1b0]
  4043b8:	49 89 f0             	mov    r8,rsi
  4043bb:	49 01 f8             	add    r8,rdi
  4043be:	48 89 b5 48 ff ff ff 	mov    QWORD PTR [rbp-0xb8],rsi
  4043c5:	48 8b b5 48 ff ff ff 	mov    rsi,QWORD PTR [rbp-0xb8]
  4043cc:	48 89 b5 50 ff ff ff 	mov    QWORD PTR [rbp-0xb0],rsi
  4043d3:	48 8b b5 50 ff ff ff 	mov    rsi,QWORD PTR [rbp-0xb0]
  4043da:	48 c1 ee 24          	shr    rsi,0x24
  4043de:	48 89 b5 40 ff ff ff 	mov    QWORD PTR [rbp-0xc0],rsi
  4043e5:	48 8b b5 48 ff ff ff 	mov    rsi,QWORD PTR [rbp-0xb8]
  4043ec:	48 89 b5 78 ff ff ff 	mov    QWORD PTR [rbp-0x88],rsi
  4043f3:	48 8b b5 78 ff ff ff 	mov    rsi,QWORD PTR [rbp-0x88]
  4043fa:	48 89 75 80          	mov    QWORD PTR [rbp-0x80],rsi
  4043fe:	48 8b 75 80          	mov    rsi,QWORD PTR [rbp-0x80]
  404402:	48 c1 ee 24          	shr    rsi,0x24
  404406:	48 89 b5 70 ff ff ff 	mov    QWORD PTR [rbp-0x90],rsi
  40440d:	48 8b b5 70 ff ff ff 	mov    rsi,QWORD PTR [rbp-0x90]
  404414:	48 8b 34 f5 00 00 30 	mov    rsi,QWORD PTR [rsi*8+0x300000]
  40441b:	00 
  40441c:	48 8b bd 78 ff ff ff 	mov    rdi,QWORD PTR [rbp-0x88]
  404423:	89 85 2c fe ff ff    	mov    DWORD PTR [rbp-0x1d4],eax
  404429:	48 89 f0             	mov    rax,rsi
  40442c:	48 89 95 20 fe ff ff 	mov    QWORD PTR [rbp-0x1e0],rdx
  404433:	48 f7 e7             	mul    rdi
  404436:	48 89 95 68 ff ff ff 	mov    QWORD PTR [rbp-0x98],rdx
  40443d:	48 89 85 60 ff ff ff 	mov    QWORD PTR [rbp-0xa0],rax
  404444:	48 8b 85 68 ff ff ff 	mov    rax,QWORD PTR [rbp-0x98]
  40444b:	48 89 85 58 ff ff ff 	mov    QWORD PTR [rbp-0xa8],rax
  404452:	48 8b 85 58 ff ff ff 	mov    rax,QWORD PTR [rbp-0xa8]
  404459:	48 89 85 38 ff ff ff 	mov    QWORD PTR [rbp-0xc8],rax
  404460:	48 8b 85 38 ff ff ff 	mov    rax,QWORD PTR [rbp-0xc8]
  404467:	48 8b 95 40 ff ff ff 	mov    rdx,QWORD PTR [rbp-0xc0]
  40446e:	48 8b b5 20 fe ff ff 	mov    rsi,QWORD PTR [rbp-0x1e0]
  404475:	48 0f af 04 d6       	imul   rax,QWORD PTR [rsi+rdx*8]
  40447a:	bf 02 00 00 00       	mov    edi,0x2
  40447f:	4c 89 c6             	mov    rsi,r8
  404482:	48 89 c2             	mov    rdx,rax
  404485:	e8 16 f5 ff ff       	call   4039a0 <lowfat_oob_error>
  40448a:	48 8b 85 70 fe ff ff 	mov    rax,QWORD PTR [rbp-0x190]
  404491:	48 8b b5 68 fe ff ff 	mov    rsi,QWORD PTR [rbp-0x198]
  404498:	48 8b 95 60 fe ff ff 	mov    rdx,QWORD PTR [rbp-0x1a0]
  40449f:	48 89 c7             	mov    rdi,rax
  4044a2:	48 89 85 18 fe ff ff 	mov    QWORD PTR [rbp-0x1e8],rax
  4044a9:	e8 52 ce ff ff       	call   401300 <memmove@plt>
  4044ae:	48 8b 95 18 fe ff ff 	mov    rdx,QWORD PTR [rbp-0x1e8]
  4044b5:	48 89 85 10 fe ff ff 	mov    QWORD PTR [rbp-0x1f0],rax
  4044bc:	48 89 d0             	mov    rax,rdx
  4044bf:	48 81 c4 f0 01 00 00 	add    rsp,0x1f0
  4044c6:	5d                   	pop    rbp
  4044c7:	c3                   	ret    
  4044c8:	0f 1f 84 00 00 00 00 	nop    DWORD PTR [rax+rax*1+0x0]
  4044cf:	00 

00000000004044d0 <lowfat_memcpy>:
  4044d0:	55                   	push   rbp
  4044d1:	48 89 e5             	mov    rbp,rsp
  4044d4:	48 83 ec 20          	sub    rsp,0x20
  4044d8:	48 89 7d f8          	mov    QWORD PTR [rbp-0x8],rdi
  4044dc:	48 89 75 f0          	mov    QWORD PTR [rbp-0x10],rsi
  4044e0:	48 89 55 e8          	mov    QWORD PTR [rbp-0x18],rdx
  4044e4:	48 8b 7d f8          	mov    rdi,QWORD PTR [rbp-0x8]
  4044e8:	48 8b 75 f0          	mov    rsi,QWORD PTR [rbp-0x10]
  4044ec:	48 8b 55 e8          	mov    rdx,QWORD PTR [rbp-0x18]
  4044f0:	e8 8b fb ff ff       	call   404080 <lowfat_memmove>
  4044f5:	48 83 c4 20          	add    rsp,0x20
  4044f9:	5d                   	pop    rbp
  4044fa:	c3                   	ret    
  4044fb:	0f 1f 44 00 00       	nop    DWORD PTR [rax+rax*1+0x0]

0000000000404500 <lowfat_get_num_errors>:
  404500:	55                   	push   rbp
  404501:	48 89 e5             	mov    rbp,rsp
  404504:	48 b8 18 e2 60 00 00 	movabs rax,0x60e218
  40450b:	00 00 00 
  40450e:	48 8b 00             	mov    rax,QWORD PTR [rax]
  404511:	5d                   	pop    rbp
  404512:	c3                   	ret    
  404513:	66 66 66 66 2e 0f 1f 	data16 data16 data16 nop WORD PTR cs:[rax+rax*1+0x0]
  40451a:	84 00 00 00 00 00 

0000000000404520 <lowfat_init>:
  404520:	55                   	push   rbp
  404521:	48 89 e5             	mov    rbp,rsp
  404524:	53                   	push   rbx
  404525:	48 81 ec 28 02 00 00 	sub    rsp,0x228
  40452c:	48 b8 20 e2 60 00 00 	movabs rax,0x60e220
  404533:	00 00 00 
  404536:	8a 08                	mov    cl,BYTE PTR [rax]
  404538:	f6 c1 01             	test   cl,0x1
  40453b:	0f 84 05 00 00 00    	je     404546 <lowfat_init+0x26>
  404541:	e9 09 09 00 00       	jmp    404e4f <lowfat_init+0x92f>
  404546:	48 b8 20 e2 60 00 00 	movabs rax,0x60e220
  40454d:	00 00 00 
  404550:	c6 00 01             	mov    BYTE PTR [rax],0x1
  404553:	48 bf 24 e2 60 00 00 	movabs rdi,0x60e224
  40455a:	00 00 00 
  40455d:	e8 7e dd ff ff       	call   4022e0 <lowfat_mutex_init>
  404562:	b9 1e 00 00 00       	mov    ecx,0x1e
  404567:	bf 1e 00 00 00       	mov    edi,0x1e
  40456c:	88 85 8f fe ff ff    	mov    BYTE PTR [rbp-0x171],al
  404572:	89 8d 88 fe ff ff    	mov    DWORD PTR [rbp-0x178],ecx
  404578:	e8 b3 cc ff ff       	call   401230 <sysconf@plt>
  40457d:	48 3d 00 10 00 00    	cmp    rax,0x1000
  404583:	0f 84 3c 00 00 00    	je     4045c5 <lowfat_init+0xa5>
  404589:	b8 1e 00 00 00       	mov    eax,0x1e
  40458e:	bf 1e 00 00 00       	mov    edi,0x1e
  404593:	89 85 84 fe ff ff    	mov    DWORD PTR [rbp-0x17c],eax
  404599:	e8 92 cc ff ff       	call   401230 <sysconf@plt>
  40459e:	48 bf 71 a6 40 00 00 	movabs rdi,0x40a671
  4045a5:	00 00 00 
  4045a8:	31 c9                	xor    ecx,ecx
  4045aa:	88 ca                	mov    dl,cl
  4045ac:	be 00 10 00 00       	mov    esi,0x1000
  4045b1:	88 95 83 fe ff ff    	mov    BYTE PTR [rbp-0x17d],dl
  4045b7:	48 89 c2             	mov    rdx,rax
  4045ba:	8a 85 83 fe ff ff    	mov    al,BYTE PTR [rbp-0x17d]
  4045c0:	e8 0b ec ff ff       	call   4031d0 <lowfat_error>
  4045c5:	b8 07 00 00 00       	mov    eax,0x7
  4045ca:	31 c9                	xor    ecx,ecx
  4045cc:	0f a2                	cpuid  
  4045ce:	89 45 f4             	mov    DWORD PTR [rbp-0xc],eax
  4045d1:	89 5d f0             	mov    DWORD PTR [rbp-0x10],ebx
  4045d4:	89 4d ec             	mov    DWORD PTR [rbp-0x14],ecx
  4045d7:	89 55 e8             	mov    DWORD PTR [rbp-0x18],edx
  4045da:	8b 45 f0             	mov    eax,DWORD PTR [rbp-0x10]
  4045dd:	c1 e8 03             	shr    eax,0x3
  4045e0:	83 e0 01             	and    eax,0x1
  4045e3:	83 f8 00             	cmp    eax,0x0
  4045e6:	0f 84 12 00 00 00    	je     4045fe <lowfat_init+0xde>
  4045ec:	8b 45 f0             	mov    eax,DWORD PTR [rbp-0x10]
  4045ef:	c1 e8 08             	shr    eax,0x8
  4045f2:	83 e0 01             	and    eax,0x1
  4045f5:	83 f8 00             	cmp    eax,0x0
  4045f8:	0f 85 15 00 00 00    	jne    404613 <lowfat_init+0xf3>
  4045fe:	48 bf a6 a6 40 00 00 	movabs rdi,0x40a6a6
  404605:	00 00 00 
  404608:	31 c0                	xor    eax,eax
  40460a:	88 c1                	mov    cl,al
  40460c:	88 c8                	mov    al,cl
  40460e:	e8 bd eb ff ff       	call   4031d0 <lowfat_error>
  404613:	31 c0                	xor    eax,eax
  404615:	89 c7                	mov    edi,eax
  404617:	b8 00 10 00 00       	mov    eax,0x1000
  40461c:	89 c6                	mov    esi,eax
  40461e:	b8 01 00 00 00       	mov    eax,0x1
  404623:	41 b8 ff ff ff ff    	mov    r8d,0xffffffff
  404629:	89 c2                	mov    edx,eax
  40462b:	89 c1                	mov    ecx,eax
  40462d:	e8 2e 08 00 00       	call   404e60 <lowfat_map>
  404632:	48 be 28 e2 60 00 00 	movabs rsi,0x60e228
  404639:	00 00 00 
  40463c:	48 89 06             	mov    QWORD PTR [rsi],rax
  40463f:	48 8b 06             	mov    rax,QWORD PTR [rsi]
  404642:	48 83 f8 00          	cmp    rax,0x0
  404646:	0f 85 24 00 00 00    	jne    404670 <lowfat_init+0x150>
  40464c:	e8 df cc ff ff       	call   401330 <__errno_location@plt>
  404651:	8b 38                	mov    edi,DWORD PTR [rax]
  404653:	e8 58 cc ff ff       	call   4012b0 <strerror@plt>
  404658:	48 bf d6 a6 40 00 00 	movabs rdi,0x40a6d6
  40465f:	00 00 00 
  404662:	31 c9                	xor    ecx,ecx
  404664:	88 ca                	mov    dl,cl
  404666:	48 89 c6             	mov    rsi,rax
  404669:	88 d0                	mov    al,dl
  40466b:	e8 60 eb ff ff       	call   4031d0 <lowfat_error>
  404670:	b8 00 00 20 00       	mov    eax,0x200000
  404675:	89 c1                	mov    ecx,eax
  404677:	b8 01 00 00 00       	mov    eax,0x1
  40467c:	ba ff ff ff ff       	mov    edx,0xffffffff
  404681:	48 c7 45 e0 08 00 00 	mov    QWORD PTR [rbp-0x20],0x8
  404688:	00 
  404689:	48 8b 75 e0          	mov    rsi,QWORD PTR [rbp-0x20]
  40468d:	48 c1 e6 0c          	shl    rsi,0xc
  404691:	48 89 75 d8          	mov    QWORD PTR [rbp-0x28],rsi
  404695:	48 8b 75 d8          	mov    rsi,QWORD PTR [rbp-0x28]
  404699:	bf 00 00 20 00       	mov    edi,0x200000
  40469e:	41 b8 01 00 00 00    	mov    r8d,0x1
  4046a4:	41 b9 ff ff ff ff    	mov    r9d,0xffffffff
  4046aa:	89 95 7c fe ff ff    	mov    DWORD PTR [rbp-0x184],edx
  4046b0:	44 89 c2             	mov    edx,r8d
  4046b3:	48 89 8d 70 fe ff ff 	mov    QWORD PTR [rbp-0x190],rcx
  4046ba:	44 89 c1             	mov    ecx,r8d
  4046bd:	45 89 c8             	mov    r8d,r9d
  4046c0:	89 85 6c fe ff ff    	mov    DWORD PTR [rbp-0x194],eax
  4046c6:	e8 95 07 00 00       	call   404e60 <lowfat_map>
  4046cb:	b9 00 00 20 00       	mov    ecx,0x200000
  4046d0:	89 ce                	mov    esi,ecx
  4046d2:	48 89 45 d0          	mov    QWORD PTR [rbp-0x30],rax
  4046d6:	48 39 75 d0          	cmp    QWORD PTR [rbp-0x30],rsi
  4046da:	0f 84 29 00 00 00    	je     404709 <lowfat_init+0x1e9>
  4046e0:	e9 00 00 00 00       	jmp    4046e5 <lowfat_init+0x1c5>
  4046e5:	e8 46 cc ff ff       	call   401330 <__errno_location@plt>
  4046ea:	8b 38                	mov    edi,DWORD PTR [rax]
  4046ec:	e8 bf cb ff ff       	call   4012b0 <strerror@plt>
  4046f1:	48 bf f9 a6 40 00 00 	movabs rdi,0x40a6f9
  4046f8:	00 00 00 
  4046fb:	31 c9                	xor    ecx,ecx
  4046fd:	88 ca                	mov    dl,cl
  4046ff:	48 89 c6             	mov    rsi,rax
  404702:	88 d0                	mov    al,dl
  404704:	e8 c7 ea ff ff       	call   4031d0 <lowfat_error>
  404709:	b8 00 10 00 00       	mov    eax,0x1000
  40470e:	89 c1                	mov    ecx,eax
  404710:	b8 00 10 00 00       	mov    eax,0x1000
  404715:	89 c7                	mov    edi,eax
  404717:	48 89 8d 60 fe ff ff 	mov    QWORD PTR [rbp-0x1a0],rcx
  40471e:	e8 2d 08 00 00       	call   404f50 <lowfat_create_shm>
  404723:	ba 00 00 20 00       	mov    edx,0x200000
  404728:	89 d1                	mov    ecx,edx
  40472a:	48 89 cf             	mov    rdi,rcx
  40472d:	48 81 c7 00 10 00 00 	add    rdi,0x1000
  404734:	89 45 cc             	mov    DWORD PTR [rbp-0x34],eax
  404737:	48 89 7d c0          	mov    QWORD PTR [rbp-0x40],rdi
  40473b:	48 8b 7d e0          	mov    rdi,QWORD PTR [rbp-0x20]
  40473f:	48 c1 e7 0c          	shl    rdi,0xc
  404743:	48 01 f9             	add    rcx,rdi
  404746:	48 89 4d b8          	mov    QWORD PTR [rbp-0x48],rcx
  40474a:	c6 45 b7 01          	mov    BYTE PTR [rbp-0x49],0x1
  40474e:	48 8b 45 c0          	mov    rax,QWORD PTR [rbp-0x40]
  404752:	48 3b 45 b8          	cmp    rax,QWORD PTR [rbp-0x48]
  404756:	0f 83 7e 00 00 00    	jae    4047da <lowfat_init+0x2ba>
  40475c:	b8 00 10 00 00       	mov    eax,0x1000
  404761:	89 c1                	mov    ecx,eax
  404763:	b8 01 00 00 00       	mov    eax,0x1
  404768:	48 8b 7d c0          	mov    rdi,QWORD PTR [rbp-0x40]
  40476c:	8a 55 b7             	mov    dl,BYTE PTR [rbp-0x49]
  40476f:	44 8b 45 cc          	mov    r8d,DWORD PTR [rbp-0x34]
  404773:	80 e2 01             	and    dl,0x1
  404776:	0f b6 f2             	movzx  esi,dl
  404779:	41 b9 00 10 00 00    	mov    r9d,0x1000
  40477f:	45 89 ca             	mov    r10d,r9d
  404782:	ba 01 00 00 00       	mov    edx,0x1
  404787:	89 b5 5c fe ff ff    	mov    DWORD PTR [rbp-0x1a4],esi
  40478d:	4c 89 d6             	mov    rsi,r10
  404790:	44 8b 8d 5c fe ff ff 	mov    r9d,DWORD PTR [rbp-0x1a4]
  404797:	48 89 8d 50 fe ff ff 	mov    QWORD PTR [rbp-0x1b0],rcx
  40479e:	44 89 c9             	mov    ecx,r9d
  4047a1:	89 85 4c fe ff ff    	mov    DWORD PTR [rbp-0x1b4],eax
  4047a7:	e8 b4 06 00 00       	call   404e60 <lowfat_map>
  4047ac:	48 89 45 d0          	mov    QWORD PTR [rbp-0x30],rax
  4047b0:	48 8b 45 d0          	mov    rax,QWORD PTR [rbp-0x30]
  4047b4:	48 3b 45 c0          	cmp    rax,QWORD PTR [rbp-0x40]
  4047b8:	0f 84 05 00 00 00    	je     4047c3 <lowfat_init+0x2a3>
  4047be:	e9 22 ff ff ff       	jmp    4046e5 <lowfat_init+0x1c5>
  4047c3:	48 8b 45 c0          	mov    rax,QWORD PTR [rbp-0x40]
  4047c7:	48 05 00 10 00 00    	add    rax,0x1000
  4047cd:	48 89 45 c0          	mov    QWORD PTR [rbp-0x40],rax
  4047d1:	c6 45 b7 00          	mov    BYTE PTR [rbp-0x49],0x0
  4047d5:	e9 74 ff ff ff       	jmp    40474e <lowfat_init+0x22e>
  4047da:	8b 7d cc             	mov    edi,DWORD PTR [rbp-0x34]
  4047dd:	e8 7e c9 ff ff       	call   401160 <close@plt>
  4047e2:	83 f8 00             	cmp    eax,0x0
  4047e5:	0f 8d 29 00 00 00    	jge    404814 <lowfat_init+0x2f4>
  4047eb:	e9 00 00 00 00       	jmp    4047f0 <lowfat_init+0x2d0>
  4047f0:	e8 3b cb ff ff       	call   401330 <__errno_location@plt>
  4047f5:	8b 38                	mov    edi,DWORD PTR [rax]
  4047f7:	e8 b4 ca ff ff       	call   4012b0 <strerror@plt>
  4047fc:	48 bf 13 a7 40 00 00 	movabs rdi,0x40a713
  404803:	00 00 00 
  404806:	31 c9                	xor    ecx,ecx
  404808:	88 ca                	mov    dl,cl
  40480a:	48 89 c6             	mov    rsi,rax
  40480d:	88 d0                	mov    al,dl
  40480f:	e8 bc e9 ff ff       	call   4031d0 <lowfat_error>
  404814:	b8 00 00 30 00       	mov    eax,0x300000
  404819:	89 c1                	mov    ecx,eax
  40481b:	b8 01 00 00 00       	mov    eax,0x1
  404820:	ba ff ff ff ff       	mov    edx,0xffffffff
  404825:	48 c7 45 a8 00 10 00 	mov    QWORD PTR [rbp-0x58],0x1000
  40482c:	00 
  40482d:	48 8b 75 d8          	mov    rsi,QWORD PTR [rbp-0x28]
  404831:	bf 00 00 30 00       	mov    edi,0x300000
  404836:	41 b8 01 00 00 00    	mov    r8d,0x1
  40483c:	41 b9 ff ff ff ff    	mov    r9d,0xffffffff
  404842:	89 95 48 fe ff ff    	mov    DWORD PTR [rbp-0x1b8],edx
  404848:	44 89 c2             	mov    edx,r8d
  40484b:	48 89 8d 40 fe ff ff 	mov    QWORD PTR [rbp-0x1c0],rcx
  404852:	44 89 c1             	mov    ecx,r8d
  404855:	45 89 c8             	mov    r8d,r9d
  404858:	89 85 3c fe ff ff    	mov    DWORD PTR [rbp-0x1c4],eax
  40485e:	e8 fd 05 00 00       	call   404e60 <lowfat_map>
  404863:	b9 00 00 30 00       	mov    ecx,0x300000
  404868:	89 ce                	mov    esi,ecx
  40486a:	48 89 45 d0          	mov    QWORD PTR [rbp-0x30],rax
  40486e:	48 39 75 d0          	cmp    QWORD PTR [rbp-0x30],rsi
  404872:	0f 84 05 00 00 00    	je     40487d <lowfat_init+0x35d>
  404878:	e9 68 fe ff ff       	jmp    4046e5 <lowfat_init+0x1c5>
  40487d:	b8 00 00 20 00       	mov    eax,0x200000
  404882:	89 c1                	mov    ecx,eax
  404884:	48 c7 45 a0 00 00 00 	mov    QWORD PTR [rbp-0x60],0x0
  40488b:	00 
  40488c:	48 8b 55 a0          	mov    rdx,QWORD PTR [rbp-0x60]
  404890:	48 89 d6             	mov    rsi,rdx
  404893:	48 83 c6 01          	add    rsi,0x1
  404897:	48 89 75 a0          	mov    QWORD PTR [rbp-0x60],rsi
  40489b:	48 c7 04 d1 ff ff ff 	mov    QWORD PTR [rcx+rdx*8],0xffffffffffffffff
  4048a2:	ff 
  4048a3:	48 c7 45 98 3e 00 00 	mov    QWORD PTR [rbp-0x68],0x3e
  4048aa:	00 
  4048ab:	48 c7 45 90 00 00 00 	mov    QWORD PTR [rbp-0x70],0x0
  4048b2:	00 
  4048b3:	48 8b 45 90          	mov    rax,QWORD PTR [rbp-0x70]
  4048b7:	48 3b 45 98          	cmp    rax,QWORD PTR [rbp-0x68]
  4048bb:	0f 83 40 00 00 00    	jae    404901 <lowfat_init+0x3e1>
  4048c1:	b8 00 00 20 00       	mov    eax,0x200000
  4048c6:	89 c1                	mov    ecx,eax
  4048c8:	48 8b 55 90          	mov    rdx,QWORD PTR [rbp-0x70]
  4048cc:	48 be 30 bc 40 00 00 	movabs rsi,0x40bc30
  4048d3:	00 00 00 
  4048d6:	48 8d 14 d6          	lea    rdx,[rsi+rdx*8]
  4048da:	48 8b 12             	mov    rdx,QWORD PTR [rdx]
  4048dd:	48 8b 75 a0          	mov    rsi,QWORD PTR [rbp-0x60]
  4048e1:	48 89 f7             	mov    rdi,rsi
  4048e4:	48 83 c7 01          	add    rdi,0x1
  4048e8:	48 89 7d a0          	mov    QWORD PTR [rbp-0x60],rdi
  4048ec:	48 89 14 f1          	mov    QWORD PTR [rcx+rsi*8],rdx
  4048f0:	48 8b 45 90          	mov    rax,QWORD PTR [rbp-0x70]
  4048f4:	48 83 c0 01          	add    rax,0x1
  4048f8:	48 89 45 90          	mov    QWORD PTR [rbp-0x70],rax
  4048fc:	e9 b2 ff ff ff       	jmp    4048b3 <lowfat_init+0x393>
  404901:	e9 00 00 00 00       	jmp    404906 <lowfat_init+0x3e6>
  404906:	b8 00 00 20 00       	mov    eax,0x200000
  40490b:	89 c1                	mov    ecx,eax
  40490d:	48 8b 55 a0          	mov    rdx,QWORD PTR [rbp-0x60]
  404911:	48 c1 e2 03          	shl    rdx,0x3
  404915:	48 01 d1             	add    rcx,rdx
  404918:	48 81 e1 ff 0f 00 00 	and    rcx,0xfff
  40491f:	48 83 f9 00          	cmp    rcx,0x0
  404923:	0f 84 23 00 00 00    	je     40494c <lowfat_init+0x42c>
  404929:	b8 00 00 20 00       	mov    eax,0x200000
  40492e:	89 c1                	mov    ecx,eax
  404930:	48 8b 55 a0          	mov    rdx,QWORD PTR [rbp-0x60]
  404934:	48 89 d6             	mov    rsi,rdx
  404937:	48 83 c6 01          	add    rsi,0x1
  40493b:	48 89 75 a0          	mov    QWORD PTR [rbp-0x60],rsi
  40493f:	48 c7 04 d1 ff ff ff 	mov    QWORD PTR [rcx+rdx*8],0xffffffffffffffff
  404946:	ff 
  404947:	e9 ba ff ff ff       	jmp    404906 <lowfat_init+0x3e6>
  40494c:	48 c7 45 88 00 00 00 	mov    QWORD PTR [rbp-0x78],0x0
  404953:	00 
  404954:	48 8b 45 88          	mov    rax,QWORD PTR [rbp-0x78]
  404958:	48 8b 4d a8          	mov    rcx,QWORD PTR [rbp-0x58]
  40495c:	48 c1 e9 03          	shr    rcx,0x3
  404960:	48 39 c8             	cmp    rax,rcx
  404963:	0f 83 2f 00 00 00    	jae    404998 <lowfat_init+0x478>
  404969:	b8 00 00 20 00       	mov    eax,0x200000
  40496e:	89 c1                	mov    ecx,eax
  404970:	48 8b 55 a0          	mov    rdx,QWORD PTR [rbp-0x60]
  404974:	48 89 d6             	mov    rsi,rdx
  404977:	48 83 c6 01          	add    rsi,0x1
  40497b:	48 89 75 a0          	mov    QWORD PTR [rbp-0x60],rsi
  40497f:	48 c7 04 d1 ff ff ff 	mov    QWORD PTR [rcx+rdx*8],0xffffffffffffffff
  404986:	ff 
  404987:	48 8b 45 88          	mov    rax,QWORD PTR [rbp-0x78]
  40498b:	48 83 c0 01          	add    rax,0x1
  40498f:	48 89 45 88          	mov    QWORD PTR [rbp-0x78],rax
  404993:	e9 bc ff ff ff       	jmp    404954 <lowfat_init+0x434>
  404998:	b8 00 00 30 00       	mov    eax,0x300000
  40499d:	89 c1                	mov    ecx,eax
  40499f:	48 c7 45 a0 00 00 00 	mov    QWORD PTR [rbp-0x60],0x0
  4049a6:	00 
  4049a7:	48 8b 55 a0          	mov    rdx,QWORD PTR [rbp-0x60]
  4049ab:	48 89 d6             	mov    rsi,rdx
  4049ae:	48 83 c6 01          	add    rsi,0x1
  4049b2:	48 89 75 a0          	mov    QWORD PTR [rbp-0x60],rsi
  4049b6:	48 c7 04 d1 00 00 00 	mov    QWORD PTR [rcx+rdx*8],0x0
  4049bd:	00 
  4049be:	48 c7 45 80 00 00 00 	mov    QWORD PTR [rbp-0x80],0x0
  4049c5:	00 
  4049c6:	48 8b 45 80          	mov    rax,QWORD PTR [rbp-0x80]
  4049ca:	48 3b 45 98          	cmp    rax,QWORD PTR [rbp-0x68]
  4049ce:	0f 83 40 00 00 00    	jae    404a14 <lowfat_init+0x4f4>
  4049d4:	b8 00 00 30 00       	mov    eax,0x300000
  4049d9:	89 c1                	mov    ecx,eax
  4049db:	48 8b 55 80          	mov    rdx,QWORD PTR [rbp-0x80]
  4049df:	48 be 20 be 40 00 00 	movabs rsi,0x40be20
  4049e6:	00 00 00 
  4049e9:	48 8d 14 d6          	lea    rdx,[rsi+rdx*8]
  4049ed:	48 8b 12             	mov    rdx,QWORD PTR [rdx]
  4049f0:	48 8b 75 a0          	mov    rsi,QWORD PTR [rbp-0x60]
  4049f4:	48 89 f7             	mov    rdi,rsi
  4049f7:	48 83 c7 01          	add    rdi,0x1
  4049fb:	48 89 7d a0          	mov    QWORD PTR [rbp-0x60],rdi
  4049ff:	48 89 14 f1          	mov    QWORD PTR [rcx+rsi*8],rdx
  404a03:	48 8b 45 80          	mov    rax,QWORD PTR [rbp-0x80]
  404a07:	48 83 c0 01          	add    rax,0x1
  404a0b:	48 89 45 80          	mov    QWORD PTR [rbp-0x80],rax
  404a0f:	e9 b2 ff ff ff       	jmp    4049c6 <lowfat_init+0x4a6>
  404a14:	e9 00 00 00 00       	jmp    404a19 <lowfat_init+0x4f9>
  404a19:	b8 00 00 30 00       	mov    eax,0x300000
  404a1e:	89 c1                	mov    ecx,eax
  404a20:	48 8b 55 a0          	mov    rdx,QWORD PTR [rbp-0x60]
  404a24:	48 c1 e2 03          	shl    rdx,0x3
  404a28:	48 01 d1             	add    rcx,rdx
  404a2b:	48 81 e1 ff 0f 00 00 	and    rcx,0xfff
  404a32:	48 83 f9 00          	cmp    rcx,0x0
  404a36:	0f 84 23 00 00 00    	je     404a5f <lowfat_init+0x53f>
  404a3c:	b8 00 00 30 00       	mov    eax,0x300000
  404a41:	89 c1                	mov    ecx,eax
  404a43:	48 8b 55 a0          	mov    rdx,QWORD PTR [rbp-0x60]
  404a47:	48 89 d6             	mov    rsi,rdx
  404a4a:	48 83 c6 01          	add    rsi,0x1
  404a4e:	48 89 75 a0          	mov    QWORD PTR [rbp-0x60],rsi
  404a52:	48 c7 04 d1 00 00 00 	mov    QWORD PTR [rcx+rdx*8],0x0
  404a59:	00 
  404a5a:	e9 ba ff ff ff       	jmp    404a19 <lowfat_init+0x4f9>
  404a5f:	b8 00 00 20 00       	mov    eax,0x200000
  404a64:	89 c1                	mov    ecx,eax
  404a66:	b8 01 00 00 00       	mov    eax,0x1
  404a6b:	31 d2                	xor    edx,edx
  404a6d:	48 8b 75 d8          	mov    rsi,QWORD PTR [rbp-0x28]
  404a71:	bf 00 00 20 00       	mov    edi,0x200000
  404a76:	41 b8 01 00 00 00    	mov    r8d,0x1
  404a7c:	45 31 c9             	xor    r9d,r9d
  404a7f:	89 95 38 fe ff ff    	mov    DWORD PTR [rbp-0x1c8],edx
  404a85:	44 89 c2             	mov    edx,r8d
  404a88:	48 89 8d 30 fe ff ff 	mov    QWORD PTR [rbp-0x1d0],rcx
  404a8f:	44 89 c9             	mov    ecx,r9d
  404a92:	89 85 2c fe ff ff    	mov    DWORD PTR [rbp-0x1d4],eax
  404a98:	e8 63 d8 ff ff       	call   402300 <lowfat_protect>
  404a9d:	a8 01                	test   al,0x1
  404a9f:	0f 85 05 00 00 00    	jne    404aaa <lowfat_init+0x58a>
  404aa5:	e9 46 00 00 00       	jmp    404af0 <lowfat_init+0x5d0>
  404aaa:	b8 00 00 30 00       	mov    eax,0x300000
  404aaf:	89 c1                	mov    ecx,eax
  404ab1:	b8 01 00 00 00       	mov    eax,0x1
  404ab6:	31 d2                	xor    edx,edx
  404ab8:	48 8b 75 d8          	mov    rsi,QWORD PTR [rbp-0x28]
  404abc:	bf 00 00 30 00       	mov    edi,0x300000
  404ac1:	41 b8 01 00 00 00    	mov    r8d,0x1
  404ac7:	45 31 c9             	xor    r9d,r9d
  404aca:	89 95 28 fe ff ff    	mov    DWORD PTR [rbp-0x1d8],edx
  404ad0:	44 89 c2             	mov    edx,r8d
  404ad3:	48 89 8d 20 fe ff ff 	mov    QWORD PTR [rbp-0x1e0],rcx
  404ada:	44 89 c9             	mov    ecx,r9d
  404add:	89 85 1c fe ff ff    	mov    DWORD PTR [rbp-0x1e4],eax
  404ae3:	e8 18 d8 ff ff       	call   402300 <lowfat_protect>
  404ae8:	a8 01                	test   al,0x1
  404aea:	0f 85 24 00 00 00    	jne    404b14 <lowfat_init+0x5f4>
  404af0:	e8 3b c8 ff ff       	call   401330 <__errno_location@plt>
  404af5:	8b 38                	mov    edi,DWORD PTR [rax]
  404af7:	e8 b4 c7 ff ff       	call   4012b0 <strerror@plt>
  404afc:	48 bf 2e a7 40 00 00 	movabs rdi,0x40a72e
  404b03:	00 00 00 
  404b06:	31 c9                	xor    ecx,ecx
  404b08:	88 ca                	mov    dl,cl
  404b0a:	48 89 c6             	mov    rsi,rax
  404b0d:	88 d0                	mov    al,dl
  404b0f:	e8 bc e6 ff ff       	call   4031d0 <lowfat_error>
  404b14:	48 c7 85 78 ff ff ff 	mov    QWORD PTR [rbp-0x88],0x1
  404b1b:	01 00 00 00 
  404b1f:	48 83 bd 78 ff ff ff 	cmp    QWORD PTR [rbp-0x88],0x3e
  404b26:	3e 
  404b27:	0f 87 9e 00 00 00    	ja     404bcb <lowfat_init+0x6ab>
  404b2d:	48 8b bd 78 ff ff ff 	mov    rdi,QWORD PTR [rbp-0x88]
  404b34:	e8 c7 d6 ff ff       	call   402200 <lowfat_region>
  404b39:	48 bf 00 00 ff ff 07 	movabs rdi,0x7ffff0000
  404b40:	00 00 00 
  404b43:	31 c9                	xor    ecx,ecx
  404b45:	ba ff ff ff ff       	mov    edx,0xffffffff
  404b4a:	48 89 85 70 ff ff ff 	mov    QWORD PTR [rbp-0x90],rax
  404b51:	48 8b 85 70 ff ff ff 	mov    rax,QWORD PTR [rbp-0x90]
  404b58:	48 be 00 00 ff ff 07 	movabs rsi,0x7ffff0000
  404b5f:	00 00 00 
  404b62:	45 31 c0             	xor    r8d,r8d
  404b65:	41 b9 ff ff ff ff    	mov    r9d,0xffffffff
  404b6b:	48 89 bd 10 fe ff ff 	mov    QWORD PTR [rbp-0x1f0],rdi
  404b72:	48 89 c7             	mov    rdi,rax
  404b75:	89 95 0c fe ff ff    	mov    DWORD PTR [rbp-0x1f4],edx
  404b7b:	44 89 c2             	mov    edx,r8d
  404b7e:	89 8d 08 fe ff ff    	mov    DWORD PTR [rbp-0x1f8],ecx
  404b84:	44 89 c1             	mov    ecx,r8d
  404b87:	45 89 c8             	mov    r8d,r9d
  404b8a:	e8 d1 02 00 00       	call   404e60 <lowfat_map>
  404b8f:	48 89 85 68 ff ff ff 	mov    QWORD PTR [rbp-0x98],rax
  404b96:	48 8b 85 68 ff ff ff 	mov    rax,QWORD PTR [rbp-0x98]
  404b9d:	48 3b 85 70 ff ff ff 	cmp    rax,QWORD PTR [rbp-0x90]
  404ba4:	0f 84 05 00 00 00    	je     404baf <lowfat_init+0x68f>
  404baa:	e9 36 fb ff ff       	jmp    4046e5 <lowfat_init+0x1c5>
  404baf:	e9 00 00 00 00       	jmp    404bb4 <lowfat_init+0x694>
  404bb4:	48 8b 85 78 ff ff ff 	mov    rax,QWORD PTR [rbp-0x88]
  404bbb:	48 83 c0 01          	add    rax,0x1
  404bbf:	48 89 85 78 ff ff ff 	mov    QWORD PTR [rbp-0x88],rax
  404bc6:	e9 54 ff ff ff       	jmp    404b1f <lowfat_init+0x5ff>
  404bcb:	e8 10 d4 ff ff       	call   401fe0 <lowfat_malloc_init>
  404bd0:	a8 01                	test   al,0x1
  404bd2:	0f 85 24 00 00 00    	jne    404bfc <lowfat_init+0x6dc>
  404bd8:	e8 53 c7 ff ff       	call   401330 <__errno_location@plt>
  404bdd:	8b 38                	mov    edi,DWORD PTR [rax]
  404bdf:	e8 cc c6 ff ff       	call   4012b0 <strerror@plt>
  404be4:	48 bf 51 a7 40 00 00 	movabs rdi,0x40a751
  404beb:	00 00 00 
  404bee:	31 c9                	xor    ecx,ecx
  404bf0:	88 ca                	mov    dl,cl
  404bf2:	48 89 c6             	mov    rsi,rax
  404bf5:	88 d0                	mov    al,dl
  404bf7:	e8 d4 e5 ff ff       	call   4031d0 <lowfat_error>
  404bfc:	48 b8 30 e2 60 00 00 	movabs rax,0x60e230
  404c03:	00 00 00 
  404c06:	c6 00 01             	mov    BYTE PTR [rax],0x1
  404c09:	48 c7 85 58 ff ff ff 	mov    QWORD PTR [rbp-0xa8],0x0
  404c10:	00 00 00 00 
  404c14:	48 8b 85 58 ff ff ff 	mov    rax,QWORD PTR [rbp-0xa8]
  404c1b:	48 b9 10 c0 40 00 00 	movabs rcx,0x40c010
  404c22:	00 00 00 
  404c25:	48 8d 04 c1          	lea    rax,[rcx+rax*8]
  404c29:	48 8b 00             	mov    rax,QWORD PTR [rax]
  404c2c:	48 89 85 60 ff ff ff 	mov    QWORD PTR [rbp-0xa0],rax
  404c33:	48 83 f8 00          	cmp    rax,0x0
  404c37:	0f 84 ab 00 00 00    	je     404ce8 <lowfat_init+0x7c8>
  404c3d:	48 8b bd 60 ff ff ff 	mov    rdi,QWORD PTR [rbp-0xa0]
  404c44:	e8 b7 d5 ff ff       	call   402200 <lowfat_region>
  404c49:	48 bf 00 00 00 00 04 	movabs rdi,0x400000000
  404c50:	00 00 00 
  404c53:	31 c9                	xor    ecx,ecx
  404c55:	ba ff ff ff ff       	mov    edx,0xffffffff
  404c5a:	48 be 00 00 00 00 0c 	movabs rsi,0xc00000000
  404c61:	00 00 00 
  404c64:	48 01 f0             	add    rax,rsi
  404c67:	48 89 85 50 ff ff ff 	mov    QWORD PTR [rbp-0xb0],rax
  404c6e:	48 8b 85 50 ff ff ff 	mov    rax,QWORD PTR [rbp-0xb0]
  404c75:	48 be 00 00 00 00 04 	movabs rsi,0x400000000
  404c7c:	00 00 00 
  404c7f:	45 31 c0             	xor    r8d,r8d
  404c82:	41 b9 ff ff ff ff    	mov    r9d,0xffffffff
  404c88:	48 89 bd 00 fe ff ff 	mov    QWORD PTR [rbp-0x200],rdi
  404c8f:	48 89 c7             	mov    rdi,rax
  404c92:	89 95 fc fd ff ff    	mov    DWORD PTR [rbp-0x204],edx
  404c98:	44 89 c2             	mov    edx,r8d
  404c9b:	89 8d f8 fd ff ff    	mov    DWORD PTR [rbp-0x208],ecx
  404ca1:	44 89 c1             	mov    ecx,r8d
  404ca4:	45 89 c8             	mov    r8d,r9d
  404ca7:	e8 b4 01 00 00       	call   404e60 <lowfat_map>
  404cac:	48 89 85 48 ff ff ff 	mov    QWORD PTR [rbp-0xb8],rax
  404cb3:	48 8b 85 48 ff ff ff 	mov    rax,QWORD PTR [rbp-0xb8]
  404cba:	48 3b 85 50 ff ff ff 	cmp    rax,QWORD PTR [rbp-0xb0]
  404cc1:	0f 84 05 00 00 00    	je     404ccc <lowfat_init+0x7ac>
  404cc7:	e9 19 fa ff ff       	jmp    4046e5 <lowfat_init+0x1c5>
  404ccc:	e9 00 00 00 00       	jmp    404cd1 <lowfat_init+0x7b1>
  404cd1:	48 8b 85 58 ff ff ff 	mov    rax,QWORD PTR [rbp-0xa8]
  404cd8:	48 83 c0 01          	add    rax,0x1
  404cdc:	48 89 85 58 ff ff ff 	mov    QWORD PTR [rbp-0xa8],rax
  404ce3:	e9 2c ff ff ff       	jmp    404c14 <lowfat_init+0x6f4>
  404ce8:	e8 23 05 00 00       	call   405210 <lowfat_threads_init>
  404ced:	a8 01                	test   al,0x1
  404cef:	0f 85 24 00 00 00    	jne    404d19 <lowfat_init+0x7f9>
  404cf5:	e8 36 c6 ff ff       	call   401330 <__errno_location@plt>
  404cfa:	8b 38                	mov    edi,DWORD PTR [rax]
  404cfc:	e8 af c5 ff ff       	call   4012b0 <strerror@plt>
  404d01:	48 bf 7a a7 40 00 00 	movabs rdi,0x40a77a
  404d08:	00 00 00 
  404d0b:	31 c9                	xor    ecx,ecx
  404d0d:	88 ca                	mov    dl,cl
  404d0f:	48 89 c6             	mov    rsi,rax
  404d12:	88 d0                	mov    al,dl
  404d14:	e8 b7 e4 ff ff       	call   4031d0 <lowfat_error>
  404d19:	48 8d 85 30 ff ff ff 	lea    rax,[rbp-0xd0]
  404d20:	31 c9                	xor    ecx,ecx
  404d22:	89 ca                	mov    edx,ecx
  404d24:	48 89 c6             	mov    rsi,rax
  404d27:	48 25 ff 0f 00 00    	and    rax,0xfff
  404d2d:	48 29 c2             	sub    rdx,rax
  404d30:	48 01 d6             	add    rsi,rdx
  404d33:	48 81 c6 00 60 ff ff 	add    rsi,0xffffffffffff6000
  404d3a:	48 81 c6 00 e0 ff ff 	add    rsi,0xffffffffffffe000
  404d41:	48 89 b5 30 ff ff ff 	mov    QWORD PTR [rbp-0xd0],rsi
  404d48:	48 c7 85 40 ff ff ff 	mov    QWORD PTR [rbp-0xc0],0x2000
  404d4f:	00 20 00 00 
  404d53:	c7 85 38 ff ff ff 00 	mov    DWORD PTR [rbp-0xc8],0x0
  404d5a:	00 00 00 
  404d5d:	31 c9                	xor    ecx,ecx
  404d5f:	89 ce                	mov    esi,ecx
  404d61:	48 8d bd 30 ff ff ff 	lea    rdi,[rbp-0xd0]
  404d68:	e8 43 c6 ff ff       	call   4013b0 <sigaltstack@plt>
  404d6d:	83 f8 ff             	cmp    eax,0xffffffff
  404d70:	0f 85 24 00 00 00    	jne    404d9a <lowfat_init+0x87a>
  404d76:	e8 b5 c5 ff ff       	call   401330 <__errno_location@plt>
  404d7b:	8b 38                	mov    edi,DWORD PTR [rax]
  404d7d:	e8 2e c5 ff ff       	call   4012b0 <strerror@plt>
  404d82:	48 bf a2 a7 40 00 00 	movabs rdi,0x40a7a2
  404d89:	00 00 00 
  404d8c:	31 c9                	xor    ecx,ecx
  404d8e:	88 ca                	mov    dl,cl
  404d90:	48 89 c6             	mov    rsi,rax
  404d93:	88 d0                	mov    al,dl
  404d95:	e8 36 e4 ff ff       	call   4031d0 <lowfat_error>
  404d9a:	b8 0b 00 00 00       	mov    eax,0xb
  404d9f:	48 8d 8d 90 fe ff ff 	lea    rcx,[rbp-0x170]
  404da6:	31 d2                	xor    edx,edx
  404da8:	89 d6                	mov    esi,edx
  404daa:	0f 57 c0             	xorps  xmm0,xmm0
  404dad:	0f 29 85 10 ff ff ff 	movaps XMMWORD PTR [rbp-0xf0],xmm0
  404db4:	0f 29 85 00 ff ff ff 	movaps XMMWORD PTR [rbp-0x100],xmm0
  404dbb:	0f 29 85 f0 fe ff ff 	movaps XMMWORD PTR [rbp-0x110],xmm0
  404dc2:	0f 29 85 e0 fe ff ff 	movaps XMMWORD PTR [rbp-0x120],xmm0
  404dc9:	0f 29 85 d0 fe ff ff 	movaps XMMWORD PTR [rbp-0x130],xmm0
  404dd0:	0f 29 85 c0 fe ff ff 	movaps XMMWORD PTR [rbp-0x140],xmm0
  404dd7:	0f 29 85 b0 fe ff ff 	movaps XMMWORD PTR [rbp-0x150],xmm0
  404dde:	0f 29 85 a0 fe ff ff 	movaps XMMWORD PTR [rbp-0x160],xmm0
  404de5:	0f 29 85 90 fe ff ff 	movaps XMMWORD PTR [rbp-0x170],xmm0
  404dec:	48 c7 85 20 ff ff ff 	mov    QWORD PTR [rbp-0xe0],0x0
  404df3:	00 00 00 00 
  404df7:	48 bf 00 53 40 00 00 	movabs rdi,0x405300
  404dfe:	00 00 00 
  404e01:	48 89 bd 90 fe ff ff 	mov    QWORD PTR [rbp-0x170],rdi
  404e08:	8b 95 18 ff ff ff    	mov    edx,DWORD PTR [rbp-0xe8]
  404e0e:	81 ca 04 00 00 08    	or     edx,0x8000004
  404e14:	89 95 18 ff ff ff    	mov    DWORD PTR [rbp-0xe8],edx
  404e1a:	31 d2                	xor    edx,edx
  404e1c:	bf 0b 00 00 00       	mov    edi,0xb
  404e21:	4c 8d 85 90 fe ff ff 	lea    r8,[rbp-0x170]
  404e28:	48 89 b5 f0 fd ff ff 	mov    QWORD PTR [rbp-0x210],rsi
  404e2f:	4c 89 c6             	mov    rsi,r8
  404e32:	89 85 ec fd ff ff    	mov    DWORD PTR [rbp-0x214],eax
  404e38:	48 89 8d e0 fd ff ff 	mov    QWORD PTR [rbp-0x220],rcx
  404e3f:	e8 7c c4 ff ff       	call   4012c0 <sigaction@plt>
  404e44:	89 85 dc fd ff ff    	mov    DWORD PTR [rbp-0x224],eax
  404e4a:	e8 e1 d0 ff ff       	call   401f30 <lowfat_stack_pivot>
  404e4f:	48 81 c4 28 02 00 00 	add    rsp,0x228
  404e56:	5b                   	pop    rbx
  404e57:	5d                   	pop    rbp
  404e58:	c3                   	ret    
  404e59:	0f 1f 80 00 00 00 00 	nop    DWORD PTR [rax+0x0]

0000000000404e60 <lowfat_map>:
  404e60:	55                   	push   rbp
  404e61:	48 89 e5             	mov    rbp,rsp
  404e64:	48 83 ec 40          	sub    rsp,0x40
  404e68:	88 c8                	mov    al,cl
  404e6a:	41 88 d1             	mov    r9b,dl
  404e6d:	48 89 7d f0          	mov    QWORD PTR [rbp-0x10],rdi
  404e71:	48 89 75 e8          	mov    QWORD PTR [rbp-0x18],rsi
  404e75:	41 80 e1 01          	and    r9b,0x1
  404e79:	44 88 4d e7          	mov    BYTE PTR [rbp-0x19],r9b
  404e7d:	24 01                	and    al,0x1
  404e7f:	88 45 e6             	mov    BYTE PTR [rbp-0x1a],al
  404e82:	44 89 45 e0          	mov    DWORD PTR [rbp-0x20],r8d
  404e86:	c7 45 dc 00 00 00 00 	mov    DWORD PTR [rbp-0x24],0x0
  404e8d:	f6 45 e7 01          	test   BYTE PTR [rbp-0x19],0x1
  404e91:	0f 84 09 00 00 00    	je     404ea0 <lowfat_map+0x40>
  404e97:	8b 45 dc             	mov    eax,DWORD PTR [rbp-0x24]
  404e9a:	83 c8 01             	or     eax,0x1
  404e9d:	89 45 dc             	mov    DWORD PTR [rbp-0x24],eax
  404ea0:	f6 45 e6 01          	test   BYTE PTR [rbp-0x1a],0x1
  404ea4:	0f 84 09 00 00 00    	je     404eb3 <lowfat_map+0x53>
  404eaa:	8b 45 dc             	mov    eax,DWORD PTR [rbp-0x24]
  404ead:	83 c8 02             	or     eax,0x2
  404eb0:	89 45 dc             	mov    DWORD PTR [rbp-0x24],eax
  404eb3:	c7 45 d8 00 40 00 00 	mov    DWORD PTR [rbp-0x28],0x4000
  404eba:	48 83 7d f0 00       	cmp    QWORD PTR [rbp-0x10],0x0
  404ebf:	0f 84 09 00 00 00    	je     404ece <lowfat_map+0x6e>
  404ec5:	8b 45 d8             	mov    eax,DWORD PTR [rbp-0x28]
  404ec8:	83 c8 10             	or     eax,0x10
  404ecb:	89 45 d8             	mov    DWORD PTR [rbp-0x28],eax
  404ece:	83 7d e0 ff          	cmp    DWORD PTR [rbp-0x20],0xffffffff
  404ed2:	0f 84 0e 00 00 00    	je     404ee6 <lowfat_map+0x86>
  404ed8:	8b 45 d8             	mov    eax,DWORD PTR [rbp-0x28]
  404edb:	83 c8 01             	or     eax,0x1
  404ede:	89 45 d8             	mov    DWORD PTR [rbp-0x28],eax
  404ee1:	e9 09 00 00 00       	jmp    404eef <lowfat_map+0x8f>
  404ee6:	8b 45 d8             	mov    eax,DWORD PTR [rbp-0x28]
  404ee9:	83 c8 22             	or     eax,0x22
  404eec:	89 45 d8             	mov    DWORD PTR [rbp-0x28],eax
  404eef:	31 c0                	xor    eax,eax
  404ef1:	89 c1                	mov    ecx,eax
  404ef3:	48 8b 7d f0          	mov    rdi,QWORD PTR [rbp-0x10]
  404ef7:	48 8b 75 e8          	mov    rsi,QWORD PTR [rbp-0x18]
  404efb:	8b 55 dc             	mov    edx,DWORD PTR [rbp-0x24]
  404efe:	8b 45 d8             	mov    eax,DWORD PTR [rbp-0x28]
  404f01:	44 8b 45 e0          	mov    r8d,DWORD PTR [rbp-0x20]
  404f05:	45 31 c9             	xor    r9d,r9d
  404f08:	48 89 4d c8          	mov    QWORD PTR [rbp-0x38],rcx
  404f0c:	89 c1                	mov    ecx,eax
  404f0e:	e8 ed c4 ff ff       	call   401400 <mmap@plt>
  404f13:	48 c7 c6 ff ff ff ff 	mov    rsi,0xffffffffffffffff
  404f1a:	48 89 45 d0          	mov    QWORD PTR [rbp-0x30],rax
  404f1e:	48 39 75 d0          	cmp    QWORD PTR [rbp-0x30],rsi
  404f22:	0f 85 0d 00 00 00    	jne    404f35 <lowfat_map+0xd5>
  404f28:	48 c7 45 f8 00 00 00 	mov    QWORD PTR [rbp-0x8],0x0
  404f2f:	00 
  404f30:	e9 08 00 00 00       	jmp    404f3d <lowfat_map+0xdd>
  404f35:	48 8b 45 d0          	mov    rax,QWORD PTR [rbp-0x30]
  404f39:	48 89 45 f8          	mov    QWORD PTR [rbp-0x8],rax
  404f3d:	48 8b 45 f8          	mov    rax,QWORD PTR [rbp-0x8]
  404f41:	48 83 c4 40          	add    rsp,0x40
  404f45:	5d                   	pop    rbp
  404f46:	c3                   	ret    
  404f47:	66 0f 1f 84 00 00 00 	nop    WORD PTR [rax+rax*1+0x0]
  404f4e:	00 00 

0000000000404f50 <lowfat_create_shm>:
  404f50:	55                   	push   rbp
  404f51:	48 89 e5             	mov    rbp,rsp
  404f54:	48 81 ec d0 00 00 00 	sub    rsp,0xd0
  404f5b:	48 8d 45 b0          	lea    rax,[rbp-0x50]
  404f5f:	48 89 7d f8          	mov    QWORD PTR [rbp-0x8],rdi
  404f63:	48 bf b0 ab 40 00 00 	movabs rdi,0x40abb0
  404f6a:	00 00 00 
  404f6d:	0f 10 47 2d          	movups xmm0,XMMWORD PTR [rdi+0x2d]
  404f71:	0f 11 40 2d          	movups XMMWORD PTR [rax+0x2d],xmm0
  404f75:	0f 28 07             	movaps xmm0,XMMWORD PTR [rdi]
  404f78:	0f 28 4f 10          	movaps xmm1,XMMWORD PTR [rdi+0x10]
  404f7c:	0f 28 57 20          	movaps xmm2,XMMWORD PTR [rdi+0x20]
  404f80:	0f 29 50 20          	movaps XMMWORD PTR [rax+0x20],xmm2
  404f84:	0f 29 48 10          	movaps XMMWORD PTR [rax+0x10],xmm1
  404f88:	0f 29 00             	movaps XMMWORD PTR [rax],xmm0
  404f8b:	48 c7 45 a8 00 00 00 	mov    QWORD PTR [rbp-0x58],0x0
  404f92:	00 
  404f93:	48 83 7d a8 3b       	cmp    QWORD PTR [rbp-0x58],0x3b
  404f98:	0f 83 af 00 00 00    	jae    40504d <lowfat_create_shm+0xfd>
  404f9e:	48 8b 45 a8          	mov    rax,QWORD PTR [rbp-0x58]
  404fa2:	0f be 4c 05 b0       	movsx  ecx,BYTE PTR [rbp+rax*1-0x50]
  404fa7:	83 f9 58             	cmp    ecx,0x58
  404faa:	0f 85 12 00 00 00    	jne    404fc2 <lowfat_create_shm+0x72>
  404fb0:	48 8b 45 a8          	mov    rax,QWORD PTR [rbp-0x58]
  404fb4:	0f be 4c 05 b1       	movsx  ecx,BYTE PTR [rbp+rax*1-0x4f]
  404fb9:	83 f9 58             	cmp    ecx,0x58
  404fbc:	0f 84 05 00 00 00    	je     404fc7 <lowfat_create_shm+0x77>
  404fc2:	e9 75 00 00 00       	jmp    40503c <lowfat_create_shm+0xec>
  404fc7:	48 8d 45 9f          	lea    rax,[rbp-0x61]
  404fcb:	b9 01 00 00 00       	mov    ecx,0x1
  404fd0:	89 ca                	mov    edx,ecx
  404fd2:	48 be 79 aa 40 00 00 	movabs rsi,0x40aa79
  404fd9:	00 00 00 
  404fdc:	48 89 75 a0          	mov    QWORD PTR [rbp-0x60],rsi
  404fe0:	b9 01 00 00 00       	mov    ecx,0x1
  404fe5:	89 ce                	mov    esi,ecx
  404fe7:	48 8d 7d 9f          	lea    rdi,[rbp-0x61]
  404feb:	48 89 45 90          	mov    QWORD PTR [rbp-0x70],rax
  404fef:	48 89 55 88          	mov    QWORD PTR [rbp-0x78],rdx
  404ff3:	e8 28 d2 ff ff       	call   402220 <lowfat_rand>
  404ff8:	48 8b 45 a0          	mov    rax,QWORD PTR [rbp-0x60]
  404ffc:	0f b6 4d 9f          	movzx  ecx,BYTE PTR [rbp-0x61]
  405000:	83 e1 0f             	and    ecx,0xf
  405003:	48 63 d1             	movsxd rdx,ecx
  405006:	44 8a 04 10          	mov    r8b,BYTE PTR [rax+rdx*1]
  40500a:	48 8b 45 a8          	mov    rax,QWORD PTR [rbp-0x58]
  40500e:	48 89 c2             	mov    rdx,rax
  405011:	48 83 c2 01          	add    rdx,0x1
  405015:	48 89 55 a8          	mov    QWORD PTR [rbp-0x58],rdx
  405019:	44 88 44 05 b0       	mov    BYTE PTR [rbp+rax*1-0x50],r8b
  40501e:	48 8b 45 a0          	mov    rax,QWORD PTR [rbp-0x60]
  405022:	0f b6 4d 9f          	movzx  ecx,BYTE PTR [rbp-0x61]
  405026:	c1 f9 04             	sar    ecx,0x4
  405029:	83 e1 0f             	and    ecx,0xf
  40502c:	48 63 d1             	movsxd rdx,ecx
  40502f:	44 8a 04 10          	mov    r8b,BYTE PTR [rax+rdx*1]
  405033:	48 8b 45 a8          	mov    rax,QWORD PTR [rbp-0x58]
  405037:	44 88 44 05 b0       	mov    BYTE PTR [rbp+rax*1-0x50],r8b
  40503c:	48 8b 45 a8          	mov    rax,QWORD PTR [rbp-0x58]
  405040:	48 83 c0 01          	add    rax,0x1
  405044:	48 89 45 a8          	mov    QWORD PTR [rbp-0x58],rax
  405048:	e9 46 ff ff ff       	jmp    404f93 <lowfat_create_shm+0x43>
  40504d:	b8 c2 00 00 00       	mov    eax,0xc2
  405052:	31 c9                	xor    ecx,ecx
  405054:	48 8d 7d b0          	lea    rdi,[rbp-0x50]
  405058:	31 d2                	xor    edx,edx
  40505a:	40 88 d6             	mov    sil,dl
  40505d:	41 b8 c2 00 00 00    	mov    r8d,0xc2
  405063:	40 88 75 87          	mov    BYTE PTR [rbp-0x79],sil
  405067:	44 89 c6             	mov    esi,r8d
  40506a:	44 8a 4d 87          	mov    r9b,BYTE PTR [rbp-0x79]
  40506e:	89 45 80             	mov    DWORD PTR [rbp-0x80],eax
  405071:	44 88 c8             	mov    al,r9b
  405074:	89 8d 7c ff ff ff    	mov    DWORD PTR [rbp-0x84],ecx
  40507a:	e8 71 c3 ff ff       	call   4013f0 <open@plt>
  40507f:	89 45 98             	mov    DWORD PTR [rbp-0x68],eax
  405082:	83 7d 98 00          	cmp    DWORD PTR [rbp-0x68],0x0
  405086:	0f 8d 40 00 00 00    	jge    4050cc <lowfat_create_shm+0x17c>
  40508c:	48 8d 75 b0          	lea    rsi,[rbp-0x50]
  405090:	48 89 b5 70 ff ff ff 	mov    QWORD PTR [rbp-0x90],rsi
  405097:	e8 94 c2 ff ff       	call   401330 <__errno_location@plt>
  40509c:	8b 38                	mov    edi,DWORD PTR [rax]
  40509e:	e8 0d c2 ff ff       	call   4012b0 <strerror@plt>
  4050a3:	48 bf b2 a8 40 00 00 	movabs rdi,0x40a8b2
  4050aa:	00 00 00 
  4050ad:	31 c9                	xor    ecx,ecx
  4050af:	88 ca                	mov    dl,cl
  4050b1:	48 8b b5 70 ff ff ff 	mov    rsi,QWORD PTR [rbp-0x90]
  4050b8:	88 95 6f ff ff ff    	mov    BYTE PTR [rbp-0x91],dl
  4050be:	48 89 c2             	mov    rdx,rax
  4050c1:	8a 85 6f ff ff ff    	mov    al,BYTE PTR [rbp-0x91]
  4050c7:	e8 04 e1 ff ff       	call   4031d0 <lowfat_error>
  4050cc:	48 8d 7d b0          	lea    rdi,[rbp-0x50]
  4050d0:	e8 3b c1 ff ff       	call   401210 <unlink@plt>
  4050d5:	83 f8 00             	cmp    eax,0x0
  4050d8:	0f 8d 40 00 00 00    	jge    40511e <lowfat_create_shm+0x1ce>
  4050de:	48 8d 75 b0          	lea    rsi,[rbp-0x50]
  4050e2:	48 89 b5 60 ff ff ff 	mov    QWORD PTR [rbp-0xa0],rsi
  4050e9:	e8 42 c2 ff ff       	call   401330 <__errno_location@plt>
  4050ee:	8b 38                	mov    edi,DWORD PTR [rax]
  4050f0:	e8 bb c1 ff ff       	call   4012b0 <strerror@plt>
  4050f5:	48 bf 8a aa 40 00 00 	movabs rdi,0x40aa8a
  4050fc:	00 00 00 
  4050ff:	31 c9                	xor    ecx,ecx
  405101:	88 ca                	mov    dl,cl
  405103:	48 8b b5 60 ff ff ff 	mov    rsi,QWORD PTR [rbp-0xa0]
  40510a:	88 95 5f ff ff ff    	mov    BYTE PTR [rbp-0xa1],dl
  405110:	48 89 c2             	mov    rdx,rax
  405113:	8a 85 5f ff ff ff    	mov    al,BYTE PTR [rbp-0xa1]
  405119:	e8 b2 e0 ff ff       	call   4031d0 <lowfat_error>
  40511e:	b8 00 04 00 00       	mov    eax,0x400
  405123:	b9 01 00 00 00       	mov    ecx,0x1
  405128:	8b 7d 98             	mov    edi,DWORD PTR [rbp-0x68]
  40512b:	31 d2                	xor    edx,edx
  40512d:	40 88 d6             	mov    sil,dl
  405130:	ba 00 04 00 00       	mov    edx,0x400
  405135:	41 b8 01 00 00 00    	mov    r8d,0x1
  40513b:	40 88 b5 5e ff ff ff 	mov    BYTE PTR [rbp-0xa2],sil
  405142:	89 d6                	mov    esi,edx
  405144:	44 89 c2             	mov    edx,r8d
  405147:	44 8a 8d 5e ff ff ff 	mov    r9b,BYTE PTR [rbp-0xa2]
  40514e:	89 85 58 ff ff ff    	mov    DWORD PTR [rbp-0xa8],eax
  405154:	44 88 c8             	mov    al,r9b
  405157:	89 8d 54 ff ff ff    	mov    DWORD PTR [rbp-0xac],ecx
  40515d:	e8 7e c2 ff ff       	call   4013e0 <fcntl@plt>
  405162:	83 f8 00             	cmp    eax,0x0
  405165:	0f 8d 40 00 00 00    	jge    4051ab <lowfat_create_shm+0x25b>
  40516b:	48 8d 75 b0          	lea    rsi,[rbp-0x50]
  40516f:	48 89 b5 48 ff ff ff 	mov    QWORD PTR [rbp-0xb8],rsi
  405176:	e8 b5 c1 ff ff       	call   401330 <__errno_location@plt>
  40517b:	8b 38                	mov    edi,DWORD PTR [rax]
  40517d:	e8 2e c1 ff ff       	call   4012b0 <strerror@plt>
  405182:	48 bf a4 aa 40 00 00 	movabs rdi,0x40aaa4
  405189:	00 00 00 
  40518c:	31 c9                	xor    ecx,ecx
  40518e:	88 ca                	mov    dl,cl
  405190:	48 8b b5 48 ff ff ff 	mov    rsi,QWORD PTR [rbp-0xb8]
  405197:	88 95 47 ff ff ff    	mov    BYTE PTR [rbp-0xb9],dl
  40519d:	48 89 c2             	mov    rdx,rax
  4051a0:	8a 85 47 ff ff ff    	mov    al,BYTE PTR [rbp-0xb9]
  4051a6:	e8 25 e0 ff ff       	call   4031d0 <lowfat_error>
  4051ab:	8b 7d 98             	mov    edi,DWORD PTR [rbp-0x68]
  4051ae:	48 8b 75 f8          	mov    rsi,QWORD PTR [rbp-0x8]
  4051b2:	e8 c9 c1 ff ff       	call   401380 <ftruncate@plt>
  4051b7:	83 f8 00             	cmp    eax,0x0
  4051ba:	0f 8d 40 00 00 00    	jge    405200 <lowfat_create_shm+0x2b0>
  4051c0:	48 8d 75 b0          	lea    rsi,[rbp-0x50]
  4051c4:	48 89 b5 38 ff ff ff 	mov    QWORD PTR [rbp-0xc8],rsi
  4051cb:	e8 60 c1 ff ff       	call   401330 <__errno_location@plt>
  4051d0:	8b 38                	mov    edi,DWORD PTR [rax]
  4051d2:	e8 d9 c0 ff ff       	call   4012b0 <strerror@plt>
  4051d7:	48 bf bd aa 40 00 00 	movabs rdi,0x40aabd
  4051de:	00 00 00 
  4051e1:	31 c9                	xor    ecx,ecx
  4051e3:	88 ca                	mov    dl,cl
  4051e5:	48 8b b5 38 ff ff ff 	mov    rsi,QWORD PTR [rbp-0xc8]
  4051ec:	88 95 37 ff ff ff    	mov    BYTE PTR [rbp-0xc9],dl
  4051f2:	48 89 c2             	mov    rdx,rax
  4051f5:	8a 85 37 ff ff ff    	mov    al,BYTE PTR [rbp-0xc9]
  4051fb:	e8 d0 df ff ff       	call   4031d0 <lowfat_error>
  405200:	8b 45 98             	mov    eax,DWORD PTR [rbp-0x68]
  405203:	48 81 c4 d0 00 00 00 	add    rsp,0xd0
  40520a:	5d                   	pop    rbp
  40520b:	c3                   	ret    
  40520c:	0f 1f 40 00          	nop    DWORD PTR [rax+0x0]

0000000000405210 <lowfat_threads_init>:
  405210:	55                   	push   rbp
  405211:	48 89 e5             	mov    rbp,rsp
  405214:	48 83 ec 20          	sub    rsp,0x20
  405218:	48 c7 45 f8 00 00 00 	mov    QWORD PTR [rbp-0x8],0x0
  40521f:	00 
  405220:	48 81 7d f8 00 01 00 	cmp    QWORD PTR [rbp-0x8],0x100
  405227:	00 
  405228:	0f 83 29 00 00 00    	jae    405257 <lowfat_threads_init+0x47>
  40522e:	48 8b 45 f8          	mov    rax,QWORD PTR [rbp-0x8]
  405232:	66 89 c1             	mov    cx,ax
  405235:	48 ba 50 e2 60 00 00 	movabs rdx,0x60e250
  40523c:	00 00 00 
  40523f:	48 8d 04 42          	lea    rax,[rdx+rax*2]
  405243:	66 89 08             	mov    WORD PTR [rax],cx
  405246:	48 8b 45 f8          	mov    rax,QWORD PTR [rbp-0x8]
  40524a:	48 83 c0 01          	add    rax,0x1
  40524e:	48 89 45 f8          	mov    QWORD PTR [rbp-0x8],rax
  405252:	e9 c9 ff ff ff       	jmp    405220 <lowfat_threads_init+0x10>
  405257:	48 c7 45 f0 ff 00 00 	mov    QWORD PTR [rbp-0x10],0xff
  40525e:	00 
  40525f:	48 83 7d f0 00       	cmp    QWORD PTR [rbp-0x10],0x0
  405264:	0f 86 7b 00 00 00    	jbe    4052e5 <lowfat_threads_init+0xd5>
  40526a:	b8 02 00 00 00       	mov    eax,0x2
  40526f:	89 c6                	mov    esi,eax
  405271:	48 8d 7d ee          	lea    rdi,[rbp-0x12]
  405275:	e8 a6 cf ff ff       	call   402220 <lowfat_rand>
  40527a:	0f b7 45 ee          	movzx  eax,WORD PTR [rbp-0x12]
  40527e:	48 8b 75 f0          	mov    rsi,QWORD PTR [rbp-0x10]
  405282:	48 ff c6             	inc    rsi
  405285:	31 c9                	xor    ecx,ecx
  405287:	89 ca                	mov    edx,ecx
  405289:	48 f7 f6             	div    rsi
  40528c:	66 41 89 d0          	mov    r8w,dx
  405290:	66 44 89 45 ee       	mov    WORD PTR [rbp-0x12],r8w
  405295:	48 8b 45 f0          	mov    rax,QWORD PTR [rbp-0x10]
  405299:	48 ba 50 e2 60 00 00 	movabs rdx,0x60e250
  4052a0:	00 00 00 
  4052a3:	0f b7 0c 42          	movzx  ecx,WORD PTR [rdx+rax*2]
  4052a7:	89 c8                	mov    eax,ecx
  4052a9:	48 89 45 e0          	mov    QWORD PTR [rbp-0x20],rax
  4052ad:	0f b7 4d ee          	movzx  ecx,WORD PTR [rbp-0x12]
  4052b1:	89 c8                	mov    eax,ecx
  4052b3:	66 44 8b 04 42       	mov    r8w,WORD PTR [rdx+rax*2]
  4052b8:	48 8b 45 f0          	mov    rax,QWORD PTR [rbp-0x10]
  4052bc:	66 44 89 04 42       	mov    WORD PTR [rdx+rax*2],r8w
  4052c1:	66 44 8b 45 e0       	mov    r8w,WORD PTR [rbp-0x20]
  4052c6:	0f b7 4d ee          	movzx  ecx,WORD PTR [rbp-0x12]
  4052ca:	89 c8                	mov    eax,ecx
  4052cc:	48 8d 04 42          	lea    rax,[rdx+rax*2]
  4052d0:	66 44 89 00          	mov    WORD PTR [rax],r8w
  4052d4:	48 8b 45 f0          	mov    rax,QWORD PTR [rbp-0x10]
  4052d8:	48 83 c0 ff          	add    rax,0xffffffffffffffff
  4052dc:	48 89 45 f0          	mov    QWORD PTR [rbp-0x10],rax
  4052e0:	e9 7a ff ff ff       	jmp    40525f <lowfat_threads_init+0x4f>
  4052e5:	48 bf 50 e4 60 00 00 	movabs rdi,0x60e450
  4052ec:	00 00 00 
  4052ef:	e8 ec cf ff ff       	call   4022e0 <lowfat_mutex_init>
  4052f4:	24 01                	and    al,0x1
  4052f6:	0f b6 c0             	movzx  eax,al
  4052f9:	48 83 c4 20          	add    rsp,0x20
  4052fd:	5d                   	pop    rbp
  4052fe:	c3                   	ret    
  4052ff:	90                   	nop

0000000000405300 <lowfat_segv_handler>:
  405300:	55                   	push   rbp
  405301:	48 89 e5             	mov    rbp,rsp
  405304:	48 81 ec a0 00 00 00 	sub    rsp,0xa0
  40530b:	b8 00 00 20 00       	mov    eax,0x200000
  405310:	89 c1                	mov    ecx,eax
  405312:	89 7d 94             	mov    DWORD PTR [rbp-0x6c],edi
  405315:	48 89 75 88          	mov    QWORD PTR [rbp-0x78],rsi
  405319:	48 89 55 80          	mov    QWORD PTR [rbp-0x80],rdx
  40531d:	48 8b 55 88          	mov    rdx,QWORD PTR [rbp-0x78]
  405321:	48 8b 52 10          	mov    rdx,QWORD PTR [rdx+0x10]
  405325:	48 89 95 78 ff ff ff 	mov    QWORD PTR [rbp-0x88],rdx
  40532c:	48 8b 95 78 ff ff ff 	mov    rdx,QWORD PTR [rbp-0x88]
  405333:	48 89 d7             	mov    rdi,rdx
  405336:	48 89 8d 70 ff ff ff 	mov    QWORD PTR [rbp-0x90],rcx
  40533d:	48 89 95 68 ff ff ff 	mov    QWORD PTR [rbp-0x98],rdx
  405344:	e8 07 03 00 00       	call   405650 <lowfat_kind>
  405349:	48 8b 8d 78 ff ff ff 	mov    rcx,QWORD PTR [rbp-0x88]
  405350:	48 89 4d a8          	mov    QWORD PTR [rbp-0x58],rcx
  405354:	48 8b 4d a8          	mov    rcx,QWORD PTR [rbp-0x58]
  405358:	48 89 4d b0          	mov    QWORD PTR [rbp-0x50],rcx
  40535c:	48 8b 4d b0          	mov    rcx,QWORD PTR [rbp-0x50]
  405360:	48 c1 e9 24          	shr    rcx,0x24
  405364:	48 89 4d a0          	mov    QWORD PTR [rbp-0x60],rcx
  405368:	48 8b 4d a8          	mov    rcx,QWORD PTR [rbp-0x58]
  40536c:	48 89 4d d8          	mov    QWORD PTR [rbp-0x28],rcx
  405370:	48 8b 4d d8          	mov    rcx,QWORD PTR [rbp-0x28]
  405374:	48 89 4d e0          	mov    QWORD PTR [rbp-0x20],rcx
  405378:	48 8b 4d e0          	mov    rcx,QWORD PTR [rbp-0x20]
  40537c:	48 c1 e9 24          	shr    rcx,0x24
  405380:	48 89 4d d0          	mov    QWORD PTR [rbp-0x30],rcx
  405384:	48 8b 4d d0          	mov    rcx,QWORD PTR [rbp-0x30]
  405388:	48 8b 0c cd 00 00 30 	mov    rcx,QWORD PTR [rcx*8+0x300000]
  40538f:	00 
  405390:	48 8b 55 d8          	mov    rdx,QWORD PTR [rbp-0x28]
  405394:	48 89 85 60 ff ff ff 	mov    QWORD PTR [rbp-0xa0],rax
  40539b:	48 89 c8             	mov    rax,rcx
  40539e:	48 f7 e2             	mul    rdx
  4053a1:	48 89 55 c8          	mov    QWORD PTR [rbp-0x38],rdx
  4053a5:	48 89 45 c0          	mov    QWORD PTR [rbp-0x40],rax
  4053a9:	48 8b 45 c8          	mov    rax,QWORD PTR [rbp-0x38]
  4053ad:	48 89 45 b8          	mov    QWORD PTR [rbp-0x48],rax
  4053b1:	48 8b 45 b8          	mov    rax,QWORD PTR [rbp-0x48]
  4053b5:	48 89 45 98          	mov    QWORD PTR [rbp-0x68],rax
  4053b9:	48 8b 45 98          	mov    rax,QWORD PTR [rbp-0x68]
  4053bd:	48 8b 4d a0          	mov    rcx,QWORD PTR [rbp-0x60]
  4053c1:	48 8b 95 70 ff ff ff 	mov    rdx,QWORD PTR [rbp-0x90]
  4053c8:	48 0f af 04 ca       	imul   rax,QWORD PTR [rdx+rcx*8]
  4053cd:	48 8b 8d 78 ff ff ff 	mov    rcx,QWORD PTR [rbp-0x88]
  4053d4:	48 89 4d f0          	mov    QWORD PTR [rbp-0x10],rcx
  4053d8:	48 8b 4d f0          	mov    rcx,QWORD PTR [rbp-0x10]
  4053dc:	48 89 4d f8          	mov    QWORD PTR [rbp-0x8],rcx
  4053e0:	48 8b 4d f8          	mov    rcx,QWORD PTR [rbp-0x8]
  4053e4:	48 c1 e9 24          	shr    rcx,0x24
  4053e8:	48 89 4d e8          	mov    QWORD PTR [rbp-0x18],rcx
  4053ec:	48 8b 4d e8          	mov    rcx,QWORD PTR [rbp-0x18]
  4053f0:	4c 8b 04 ca          	mov    r8,QWORD PTR [rdx+rcx*8]
  4053f4:	48 bf da aa 40 00 00 	movabs rdi,0x40aada
  4053fb:	00 00 00 
  4053fe:	45 31 c9             	xor    r9d,r9d
  405401:	45 88 ca             	mov    r10b,r9b
  405404:	48 8b b5 68 ff ff ff 	mov    rsi,QWORD PTR [rbp-0x98]
  40540b:	48 8b 95 60 ff ff ff 	mov    rdx,QWORD PTR [rbp-0xa0]
  405412:	48 89 c1             	mov    rcx,rax
  405415:	44 88 d0             	mov    al,r10b
  405418:	e8 b3 dd ff ff       	call   4031d0 <lowfat_error>
  40541d:	0f 1f 00             	nop    DWORD PTR [rax]

0000000000405420 <lowfat_stack_mirror>:
  405420:	55                   	push   rbp
  405421:	48 89 e5             	mov    rbp,rsp
  405424:	48 89 7d f8          	mov    QWORD PTR [rbp-0x8],rdi
  405428:	48 89 75 f0          	mov    QWORD PTR [rbp-0x10],rsi
  40542c:	48 8b 75 f8          	mov    rsi,QWORD PTR [rbp-0x8]
  405430:	48 03 75 f0          	add    rsi,QWORD PTR [rbp-0x10]
  405434:	48 89 f0             	mov    rax,rsi
  405437:	5d                   	pop    rbp
  405438:	c3                   	ret    
  405439:	0f 1f 80 00 00 00 00 	nop    DWORD PTR [rax+0x0]

0000000000405440 <lowfat_stack_offset>:
  405440:	55                   	push   rbp
  405441:	48 89 e5             	mov    rbp,rsp
  405444:	48 89 7d f8          	mov    QWORD PTR [rbp-0x8],rdi
  405448:	48 8b 7d f8          	mov    rdi,QWORD PTR [rbp-0x8]
  40544c:	48 b8 20 ba 40 00 00 	movabs rax,0x40ba20
  405453:	00 00 00 
  405456:	48 8d 04 f8          	lea    rax,[rax+rdi*8]
  40545a:	48 8b 00             	mov    rax,QWORD PTR [rax]
  40545d:	5d                   	pop    rbp
  40545e:	c3                   	ret    
  40545f:	90                   	nop

0000000000405460 <lowfat_stack_align>:
  405460:	55                   	push   rbp
  405461:	48 89 e5             	mov    rbp,rsp
  405464:	48 89 7d f8          	mov    QWORD PTR [rbp-0x8],rdi
  405468:	48 89 75 f0          	mov    QWORD PTR [rbp-0x10],rsi
  40546c:	48 8b 75 f8          	mov    rsi,QWORD PTR [rbp-0x8]
  405470:	48 8b 7d f0          	mov    rdi,QWORD PTR [rbp-0x10]
  405474:	48 b8 10 b8 40 00 00 	movabs rax,0x40b810
  40547b:	00 00 00 
  40547e:	48 8d 04 f8          	lea    rax,[rax+rdi*8]
  405482:	48 23 30             	and    rsi,QWORD PTR [rax]
  405485:	48 89 f0             	mov    rax,rsi
  405488:	5d                   	pop    rbp
  405489:	c3                   	ret    
  40548a:	66 0f 1f 44 00 00    	nop    WORD PTR [rax+rax*1+0x0]

0000000000405490 <lowfat_stack_allocsize>:
  405490:	55                   	push   rbp
  405491:	48 89 e5             	mov    rbp,rsp
  405494:	48 89 7d f8          	mov    QWORD PTR [rbp-0x8],rdi
  405498:	48 8b 7d f8          	mov    rdi,QWORD PTR [rbp-0x8]
  40549c:	48 b8 00 b6 40 00 00 	movabs rax,0x40b600
  4054a3:	00 00 00 
  4054a6:	48 8d 04 f8          	lea    rax,[rax+rdi*8]
  4054aa:	48 8b 00             	mov    rax,QWORD PTR [rax]
  4054ad:	5d                   	pop    rbp
  4054ae:	c3                   	ret    
  4054af:	90                   	nop

00000000004054b0 <lowfat_is_global_ptr>:
  4054b0:	55                   	push   rbp
  4054b1:	48 89 e5             	mov    rbp,rsp
  4054b4:	48 83 ec 30          	sub    rsp,0x30
  4054b8:	48 89 7d f0          	mov    QWORD PTR [rbp-0x10],rdi
  4054bc:	48 8b 7d f0          	mov    rdi,QWORD PTR [rbp-0x10]
  4054c0:	48 89 7d f8          	mov    QWORD PTR [rbp-0x8],rdi
  4054c4:	48 8b 7d f8          	mov    rdi,QWORD PTR [rbp-0x8]
  4054c8:	48 c1 ef 24          	shr    rdi,0x24
  4054cc:	48 89 7d e8          	mov    QWORD PTR [rbp-0x18],rdi
  4054d0:	48 8b 7d e8          	mov    rdi,QWORD PTR [rbp-0x18]
  4054d4:	e8 27 cd ff ff       	call   402200 <lowfat_region>
  4054d9:	48 bf 00 00 00 00 04 	movabs rdi,0x400000000
  4054e0:	00 00 00 
  4054e3:	48 b9 00 70 ff ff 07 	movabs rcx,0x7ffff7000
  4054ea:	00 00 00 
  4054ed:	48 01 c8             	add    rax,rcx
  4054f0:	48 01 f8             	add    rax,rdi
  4054f3:	48 89 45 e0          	mov    QWORD PTR [rbp-0x20],rax
  4054f7:	48 8b 7d f0          	mov    rdi,QWORD PTR [rbp-0x10]
  4054fb:	e8 60 db ff ff       	call   403060 <lowfat_is_ptr>
  405500:	31 d2                	xor    edx,edx
  405502:	40 88 d6             	mov    sil,dl
  405505:	a8 01                	test   al,0x1
  405507:	40 88 75 df          	mov    BYTE PTR [rbp-0x21],sil
  40550b:	0f 85 05 00 00 00    	jne    405516 <lowfat_is_global_ptr+0x66>
  405511:	e9 20 00 00 00       	jmp    405536 <lowfat_is_global_ptr+0x86>
  405516:	48 b8 00 00 00 00 04 	movabs rax,0x400000000
  40551d:	00 00 00 
  405520:	48 8b 4d e0          	mov    rcx,QWORD PTR [rbp-0x20]
  405524:	48 8b 55 f0          	mov    rdx,QWORD PTR [rbp-0x10]
  405528:	48 29 d1             	sub    rcx,rdx
  40552b:	48 39 c1             	cmp    rcx,rax
  40552e:	40 0f 96 c6          	setbe  sil
  405532:	40 88 75 df          	mov    BYTE PTR [rbp-0x21],sil
  405536:	8a 45 df             	mov    al,BYTE PTR [rbp-0x21]
  405539:	24 01                	and    al,0x1
  40553b:	0f b6 c0             	movzx  eax,al
  40553e:	48 83 c4 30          	add    rsp,0x30
  405542:	5d                   	pop    rbp
  405543:	c3                   	ret    
  405544:	66 66 66 2e 0f 1f 84 	data16 data16 nop WORD PTR cs:[rax+rax*1+0x0]
  40554b:	00 00 00 00 00 

0000000000405550 <lowfat_error_kind>:
  405550:	55                   	push   rbp
  405551:	48 89 e5             	mov    rbp,rsp
  405554:	89 7d f4             	mov    DWORD PTR [rbp-0xc],edi
  405557:	8b 7d f4             	mov    edi,DWORD PTR [rbp-0xc]
  40555a:	89 f8                	mov    eax,edi
  40555c:	48 89 c1             	mov    rcx,rax
  40555f:	48 83 e9 09          	sub    rcx,0x9
  405563:	48 89 45 e8          	mov    QWORD PTR [rbp-0x18],rax
  405567:	48 89 4d e0          	mov    QWORD PTR [rbp-0x20],rcx
  40556b:	0f 87 bf 00 00 00    	ja     405630 <lowfat_error_kind+0xe0>
  405571:	48 b8 50 a5 40 00 00 	movabs rax,0x40a550
  405578:	00 00 00 
  40557b:	48 8b 4d e8          	mov    rcx,QWORD PTR [rbp-0x18]
  40557f:	48 8b 04 c8          	mov    rax,QWORD PTR [rax+rcx*8]
  405583:	ff e0                	jmp    rax
  405585:	48 b8 24 ab 40 00 00 	movabs rax,0x40ab24
  40558c:	00 00 00 
  40558f:	48 89 45 f8          	mov    QWORD PTR [rbp-0x8],rax
  405593:	e9 a6 00 00 00       	jmp    40563e <lowfat_error_kind+0xee>
  405598:	48 b8 29 ab 40 00 00 	movabs rax,0x40ab29
  40559f:	00 00 00 
  4055a2:	48 89 45 f8          	mov    QWORD PTR [rbp-0x8],rax
  4055a6:	e9 93 00 00 00       	jmp    40563e <lowfat_error_kind+0xee>
  4055ab:	48 b8 2f ab 40 00 00 	movabs rax,0x40ab2f
  4055b2:	00 00 00 
  4055b5:	48 89 45 f8          	mov    QWORD PTR [rbp-0x8],rax
  4055b9:	e9 80 00 00 00       	jmp    40563e <lowfat_error_kind+0xee>
  4055be:	48 b8 36 ab 40 00 00 	movabs rax,0x40ab36
  4055c5:	00 00 00 
  4055c8:	48 89 45 f8          	mov    QWORD PTR [rbp-0x8],rax
  4055cc:	e9 6d 00 00 00       	jmp    40563e <lowfat_error_kind+0xee>
  4055d1:	48 b8 3d ab 40 00 00 	movabs rax,0x40ab3d
  4055d8:	00 00 00 
  4055db:	48 89 45 f8          	mov    QWORD PTR [rbp-0x8],rax
  4055df:	e9 5a 00 00 00       	jmp    40563e <lowfat_error_kind+0xee>
  4055e4:	48 b8 4b ab 40 00 00 	movabs rax,0x40ab4b
  4055eb:	00 00 00 
  4055ee:	48 89 45 f8          	mov    QWORD PTR [rbp-0x8],rax
  4055f2:	e9 47 00 00 00       	jmp    40563e <lowfat_error_kind+0xee>
  4055f7:	48 b8 5b ab 40 00 00 	movabs rax,0x40ab5b
  4055fe:	00 00 00 
  405601:	48 89 45 f8          	mov    QWORD PTR [rbp-0x8],rax
  405605:	e9 34 00 00 00       	jmp    40563e <lowfat_error_kind+0xee>
  40560a:	48 b8 6a ab 40 00 00 	movabs rax,0x40ab6a
  405611:	00 00 00 
  405614:	48 89 45 f8          	mov    QWORD PTR [rbp-0x8],rax
  405618:	e9 21 00 00 00       	jmp    40563e <lowfat_error_kind+0xee>
  40561d:	48 b8 7b ab 40 00 00 	movabs rax,0x40ab7b
  405624:	00 00 00 
  405627:	48 89 45 f8          	mov    QWORD PTR [rbp-0x8],rax
  40562b:	e9 0e 00 00 00       	jmp    40563e <lowfat_error_kind+0xee>
  405630:	48 b8 8b ab 40 00 00 	movabs rax,0x40ab8b
  405637:	00 00 00 
  40563a:	48 89 45 f8          	mov    QWORD PTR [rbp-0x8],rax
  40563e:	48 8b 45 f8          	mov    rax,QWORD PTR [rbp-0x8]
  405642:	5d                   	pop    rbp
  405643:	c3                   	ret    
  405644:	66 66 66 2e 0f 1f 84 	data16 data16 nop WORD PTR cs:[rax+rax*1+0x0]
  40564b:	00 00 00 00 00 

0000000000405650 <lowfat_kind>:
  405650:	55                   	push   rbp
  405651:	48 89 e5             	mov    rbp,rsp
  405654:	48 83 ec 10          	sub    rsp,0x10
  405658:	48 89 7d f0          	mov    QWORD PTR [rbp-0x10],rdi
  40565c:	48 8b 7d f0          	mov    rdi,QWORD PTR [rbp-0x10]
  405660:	e8 fb d9 ff ff       	call   403060 <lowfat_is_ptr>
  405665:	a8 01                	test   al,0x1
  405667:	0f 85 13 00 00 00    	jne    405680 <lowfat_kind+0x30>
  40566d:	48 b8 93 ab 40 00 00 	movabs rax,0x40ab93
  405674:	00 00 00 
  405677:	48 89 45 f8          	mov    QWORD PTR [rbp-0x8],rax
  40567b:	e9 89 00 00 00       	jmp    405709 <lowfat_kind+0xb9>
  405680:	48 8b 7d f0          	mov    rdi,QWORD PTR [rbp-0x10]
  405684:	e8 17 da ff ff       	call   4030a0 <lowfat_is_heap_ptr>
  405689:	a8 01                	test   al,0x1
  40568b:	0f 85 05 00 00 00    	jne    405696 <lowfat_kind+0x46>
  405691:	e9 13 00 00 00       	jmp    4056a9 <lowfat_kind+0x59>
  405696:	48 b8 9a ab 40 00 00 	movabs rax,0x40ab9a
  40569d:	00 00 00 
  4056a0:	48 89 45 f8          	mov    QWORD PTR [rbp-0x8],rax
  4056a4:	e9 60 00 00 00       	jmp    405709 <lowfat_kind+0xb9>
  4056a9:	48 8b 7d f0          	mov    rdi,QWORD PTR [rbp-0x10]
  4056ad:	e8 7e da ff ff       	call   403130 <lowfat_is_stack_ptr>
  4056b2:	a8 01                	test   al,0x1
  4056b4:	0f 85 05 00 00 00    	jne    4056bf <lowfat_kind+0x6f>
  4056ba:	e9 13 00 00 00       	jmp    4056d2 <lowfat_kind+0x82>
  4056bf:	48 b8 ab a5 40 00 00 	movabs rax,0x40a5ab
  4056c6:	00 00 00 
  4056c9:	48 89 45 f8          	mov    QWORD PTR [rbp-0x8],rax
  4056cd:	e9 37 00 00 00       	jmp    405709 <lowfat_kind+0xb9>
  4056d2:	48 8b 7d f0          	mov    rdi,QWORD PTR [rbp-0x10]
  4056d6:	e8 d5 fd ff ff       	call   4054b0 <lowfat_is_global_ptr>
  4056db:	a8 01                	test   al,0x1
  4056dd:	0f 85 05 00 00 00    	jne    4056e8 <lowfat_kind+0x98>
  4056e3:	e9 13 00 00 00       	jmp    4056fb <lowfat_kind+0xab>
  4056e8:	48 b8 b1 a5 40 00 00 	movabs rax,0x40a5b1
  4056ef:	00 00 00 
  4056f2:	48 89 45 f8          	mov    QWORD PTR [rbp-0x8],rax
  4056f6:	e9 0e 00 00 00       	jmp    405709 <lowfat_kind+0xb9>
  4056fb:	48 b8 9f ab 40 00 00 	movabs rax,0x40ab9f
  405702:	00 00 00 
  405705:	48 89 45 f8          	mov    QWORD PTR [rbp-0x8],rax
  405709:	48 8b 45 f8          	mov    rax,QWORD PTR [rbp-0x8]
  40570d:	48 83 c4 10          	add    rsp,0x10
  405711:	5d                   	pop    rbp
  405712:	c3                   	ret    
  405713:	66 66 66 66 2e 0f 1f 	data16 data16 data16 nop WORD PTR cs:[rax+rax*1+0x0]
  40571a:	84 00 00 00 00 00 

0000000000405720 <lowfat_oob_warning>:
  405720:	55                   	push   rbp
  405721:	48 89 e5             	mov    rbp,rsp
  405724:	48 81 ec 80 00 00 00 	sub    rsp,0x80
  40572b:	89 7d cc             	mov    DWORD PTR [rbp-0x34],edi
  40572e:	48 89 75 c0          	mov    QWORD PTR [rbp-0x40],rsi
  405732:	48 89 55 b8          	mov    QWORD PTR [rbp-0x48],rdx
  405736:	8b 7d cc             	mov    edi,DWORD PTR [rbp-0x34]
  405739:	e8 12 fe ff ff       	call   405550 <lowfat_error_kind>
  40573e:	48 89 45 b0          	mov    QWORD PTR [rbp-0x50],rax
  405742:	48 8b 45 c0          	mov    rax,QWORD PTR [rbp-0x40]
  405746:	48 8b 55 b8          	mov    rdx,QWORD PTR [rbp-0x48]
  40574a:	48 29 d0             	sub    rax,rdx
  40574d:	48 89 45 a8          	mov    QWORD PTR [rbp-0x58],rax
  405751:	48 83 7d a8 00       	cmp    QWORD PTR [rbp-0x58],0x0
  405756:	0f 8e 36 00 00 00    	jle    405792 <lowfat_oob_warning+0x72>
  40575c:	b8 00 00 20 00       	mov    eax,0x200000
  405761:	89 c1                	mov    ecx,eax
  405763:	48 8b 55 b8          	mov    rdx,QWORD PTR [rbp-0x48]
  405767:	48 89 55 d8          	mov    QWORD PTR [rbp-0x28],rdx
  40576b:	48 8b 55 d8          	mov    rdx,QWORD PTR [rbp-0x28]
  40576f:	48 89 55 e0          	mov    QWORD PTR [rbp-0x20],rdx
  405773:	48 8b 55 e0          	mov    rdx,QWORD PTR [rbp-0x20]
  405777:	48 c1 ea 24          	shr    rdx,0x24
  40577b:	48 89 55 d0          	mov    QWORD PTR [rbp-0x30],rdx
  40577f:	48 8b 55 d0          	mov    rdx,QWORD PTR [rbp-0x30]
  405783:	48 8b 0c d1          	mov    rcx,QWORD PTR [rcx+rdx*8]
  405787:	48 8b 55 a8          	mov    rdx,QWORD PTR [rbp-0x58]
  40578b:	48 29 ca             	sub    rdx,rcx
  40578e:	48 89 55 a8          	mov    QWORD PTR [rbp-0x58],rdx
  405792:	48 8b 75 b0          	mov    rsi,QWORD PTR [rbp-0x50]
  405796:	48 8b 45 c0          	mov    rax,QWORD PTR [rbp-0x40]
  40579a:	48 89 c7             	mov    rdi,rax
  40579d:	48 89 75 a0          	mov    QWORD PTR [rbp-0x60],rsi
  4057a1:	48 89 45 98          	mov    QWORD PTR [rbp-0x68],rax
  4057a5:	e8 a6 fe ff ff       	call   405650 <lowfat_kind>
  4057aa:	48 8b 75 b8          	mov    rsi,QWORD PTR [rbp-0x48]
  4057ae:	48 89 75 f0          	mov    QWORD PTR [rbp-0x10],rsi
  4057b2:	48 8b 7d f0          	mov    rdi,QWORD PTR [rbp-0x10]
  4057b6:	48 89 7d f8          	mov    QWORD PTR [rbp-0x8],rdi
  4057ba:	48 8b 7d f8          	mov    rdi,QWORD PTR [rbp-0x8]
  4057be:	48 c1 ef 24          	shr    rdi,0x24
  4057c2:	48 89 7d e8          	mov    QWORD PTR [rbp-0x18],rdi
  4057c6:	48 8b 7d e8          	mov    rdi,QWORD PTR [rbp-0x18]
  4057ca:	4c 8b 0c fd 00 00 20 	mov    r9,QWORD PTR [rdi*8+0x200000]
  4057d1:	00 
  4057d2:	48 8b 7d a8          	mov    rdi,QWORD PTR [rbp-0x58]
  4057d6:	48 85 ff             	test   rdi,rdi
  4057d9:	48 bf 31 a8 40 00 00 	movabs rdi,0x40a831
  4057e0:	00 00 00 
  4057e3:	48 b9 3b a8 40 00 00 	movabs rcx,0x40a83b
  4057ea:	00 00 00 
  4057ed:	48 0f 48 cf          	cmovs  rcx,rdi
  4057f1:	48 8b 7d a8          	mov    rdi,QWORD PTR [rbp-0x58]
  4057f5:	48 89 e2             	mov    rdx,rsp
  4057f8:	48 89 7a 08          	mov    QWORD PTR [rdx+0x8],rdi
  4057fc:	48 89 0a             	mov    QWORD PTR [rdx],rcx
  4057ff:	48 bf c1 a7 40 00 00 	movabs rdi,0x40a7c1
  405806:	00 00 00 
  405809:	45 31 c0             	xor    r8d,r8d
  40580c:	45 88 c2             	mov    r10b,r8b
  40580f:	48 8b 4d a0          	mov    rcx,QWORD PTR [rbp-0x60]
  405813:	48 89 75 90          	mov    QWORD PTR [rbp-0x70],rsi
  405817:	48 89 ce             	mov    rsi,rcx
  40581a:	48 8b 55 98          	mov    rdx,QWORD PTR [rbp-0x68]
  40581e:	48 89 c1             	mov    rcx,rax
  405821:	4c 8b 45 90          	mov    r8,QWORD PTR [rbp-0x70]
  405825:	44 88 d0             	mov    al,r10b
  405828:	e8 13 00 00 00       	call   405840 <lowfat_warning>
  40582d:	48 81 c4 80 00 00 00 	add    rsp,0x80
  405834:	5d                   	pop    rbp
  405835:	c3                   	ret    
  405836:	66 2e 0f 1f 84 00 00 	nop    WORD PTR cs:[rax+rax*1+0x0]
  40583d:	00 00 00 

0000000000405840 <lowfat_warning>:
  405840:	55                   	push   rbp
  405841:	48 89 e5             	mov    rbp,rsp
  405844:	48 81 ec 80 01 00 00 	sub    rsp,0x180
  40584b:	84 c0                	test   al,al
  40584d:	0f 29 bd 20 ff ff ff 	movaps XMMWORD PTR [rbp-0xe0],xmm7
  405854:	0f 29 b5 10 ff ff ff 	movaps XMMWORD PTR [rbp-0xf0],xmm6
  40585b:	0f 29 ad 00 ff ff ff 	movaps XMMWORD PTR [rbp-0x100],xmm5
  405862:	0f 29 a5 f0 fe ff ff 	movaps XMMWORD PTR [rbp-0x110],xmm4
  405869:	0f 29 9d e0 fe ff ff 	movaps XMMWORD PTR [rbp-0x120],xmm3
  405870:	0f 29 95 d0 fe ff ff 	movaps XMMWORD PTR [rbp-0x130],xmm2
  405877:	0f 29 8d c0 fe ff ff 	movaps XMMWORD PTR [rbp-0x140],xmm1
  40587e:	0f 29 85 b0 fe ff ff 	movaps XMMWORD PTR [rbp-0x150],xmm0
  405885:	48 89 bd a8 fe ff ff 	mov    QWORD PTR [rbp-0x158],rdi
  40588c:	4c 89 8d a0 fe ff ff 	mov    QWORD PTR [rbp-0x160],r9
  405893:	4c 89 85 98 fe ff ff 	mov    QWORD PTR [rbp-0x168],r8
  40589a:	48 89 8d 90 fe ff ff 	mov    QWORD PTR [rbp-0x170],rcx
  4058a1:	48 89 95 88 fe ff ff 	mov    QWORD PTR [rbp-0x178],rdx
  4058a8:	48 89 b5 80 fe ff ff 	mov    QWORD PTR [rbp-0x180],rsi
  4058af:	0f 84 5e 00 00 00    	je     405913 <lowfat_warning+0xd3>
  4058b5:	0f 28 85 b0 fe ff ff 	movaps xmm0,XMMWORD PTR [rbp-0x150]
  4058bc:	0f 29 85 60 ff ff ff 	movaps XMMWORD PTR [rbp-0xa0],xmm0
  4058c3:	0f 28 8d c0 fe ff ff 	movaps xmm1,XMMWORD PTR [rbp-0x140]
  4058ca:	0f 29 8d 70 ff ff ff 	movaps XMMWORD PTR [rbp-0x90],xmm1
  4058d1:	0f 28 95 d0 fe ff ff 	movaps xmm2,XMMWORD PTR [rbp-0x130]
  4058d8:	0f 29 55 80          	movaps XMMWORD PTR [rbp-0x80],xmm2
  4058dc:	0f 28 9d e0 fe ff ff 	movaps xmm3,XMMWORD PTR [rbp-0x120]
  4058e3:	0f 29 5d 90          	movaps XMMWORD PTR [rbp-0x70],xmm3
  4058e7:	0f 28 a5 f0 fe ff ff 	movaps xmm4,XMMWORD PTR [rbp-0x110]
  4058ee:	0f 29 65 a0          	movaps XMMWORD PTR [rbp-0x60],xmm4
  4058f2:	0f 28 ad 00 ff ff ff 	movaps xmm5,XMMWORD PTR [rbp-0x100]
  4058f9:	0f 29 6d b0          	movaps XMMWORD PTR [rbp-0x50],xmm5
  4058fd:	0f 28 b5 10 ff ff ff 	movaps xmm6,XMMWORD PTR [rbp-0xf0]
  405904:	0f 29 75 c0          	movaps XMMWORD PTR [rbp-0x40],xmm6
  405908:	0f 28 bd 20 ff ff ff 	movaps xmm7,XMMWORD PTR [rbp-0xe0]
  40590f:	0f 29 7d d0          	movaps XMMWORD PTR [rbp-0x30],xmm7
  405913:	48 8b 85 a0 fe ff ff 	mov    rax,QWORD PTR [rbp-0x160]
  40591a:	48 89 85 58 ff ff ff 	mov    QWORD PTR [rbp-0xa8],rax
  405921:	48 8b 8d 98 fe ff ff 	mov    rcx,QWORD PTR [rbp-0x168]
  405928:	48 89 8d 50 ff ff ff 	mov    QWORD PTR [rbp-0xb0],rcx
  40592f:	48 8b 95 90 fe ff ff 	mov    rdx,QWORD PTR [rbp-0x170]
  405936:	48 89 95 48 ff ff ff 	mov    QWORD PTR [rbp-0xb8],rdx
  40593d:	48 8b b5 88 fe ff ff 	mov    rsi,QWORD PTR [rbp-0x178]
  405944:	48 89 b5 40 ff ff ff 	mov    QWORD PTR [rbp-0xc0],rsi
  40594b:	48 8b bd 80 fe ff ff 	mov    rdi,QWORD PTR [rbp-0x180]
  405952:	48 89 bd 38 ff ff ff 	mov    QWORD PTR [rbp-0xc8],rdi
  405959:	4c 8b 85 a8 fe ff ff 	mov    r8,QWORD PTR [rbp-0x158]
  405960:	4c 89 45 f8          	mov    QWORD PTR [rbp-0x8],r8
  405964:	4c 8d 85 30 ff ff ff 	lea    r8,[rbp-0xd0]
  40596b:	4c 89 45 f0          	mov    QWORD PTR [rbp-0x10],r8
  40596f:	4c 8d 45 10          	lea    r8,[rbp+0x10]
  405973:	4c 89 45 e8          	mov    QWORD PTR [rbp-0x18],r8
  405977:	c7 45 e4 30 00 00 00 	mov    DWORD PTR [rbp-0x1c],0x30
  40597e:	c7 45 e0 08 00 00 00 	mov    DWORD PTR [rbp-0x20],0x8
  405985:	48 8b 7d f8          	mov    rdi,QWORD PTR [rbp-0x8]
  405989:	31 f6                	xor    esi,esi
  40598b:	48 8d 55 e0          	lea    rdx,[rbp-0x20]
  40598f:	e8 2c 07 00 00       	call   4060c0 <lowfat_message>
  405994:	48 81 c4 80 01 00 00 	add    rsp,0x180
  40599b:	5d                   	pop    rbp
  40599c:	c3                   	ret    
  40599d:	0f 1f 00             	nop    DWORD PTR [rax]

00000000004059a0 <lowfat_oob_check>:
  4059a0:	55                   	push   rbp
  4059a1:	48 89 e5             	mov    rbp,rsp
  4059a4:	48 83 ec 50          	sub    rsp,0x50
  4059a8:	b8 00 00 20 00       	mov    eax,0x200000
  4059ad:	41 89 c0             	mov    r8d,eax
  4059b0:	89 7d e4             	mov    DWORD PTR [rbp-0x1c],edi
  4059b3:	48 89 75 d8          	mov    QWORD PTR [rbp-0x28],rsi
  4059b7:	48 89 55 d0          	mov    QWORD PTR [rbp-0x30],rdx
  4059bb:	48 89 4d c8          	mov    QWORD PTR [rbp-0x38],rcx
  4059bf:	48 8b 4d c8          	mov    rcx,QWORD PTR [rbp-0x38]
  4059c3:	48 89 4d f0          	mov    QWORD PTR [rbp-0x10],rcx
  4059c7:	48 8b 4d f0          	mov    rcx,QWORD PTR [rbp-0x10]
  4059cb:	48 89 4d f8          	mov    QWORD PTR [rbp-0x8],rcx
  4059cf:	48 8b 4d f8          	mov    rcx,QWORD PTR [rbp-0x8]
  4059d3:	48 c1 e9 24          	shr    rcx,0x24
  4059d7:	48 89 4d e8          	mov    QWORD PTR [rbp-0x18],rcx
  4059db:	48 8b 4d e8          	mov    rcx,QWORD PTR [rbp-0x18]
  4059df:	49 8b 0c c8          	mov    rcx,QWORD PTR [r8+rcx*8]
  4059e3:	48 89 4d c0          	mov    QWORD PTR [rbp-0x40],rcx
  4059e7:	48 8b 4d d8          	mov    rcx,QWORD PTR [rbp-0x28]
  4059eb:	48 8b 55 c8          	mov    rdx,QWORD PTR [rbp-0x38]
  4059ef:	48 29 d1             	sub    rcx,rdx
  4059f2:	48 89 4d b8          	mov    QWORD PTR [rbp-0x48],rcx
  4059f6:	48 8b 4d d0          	mov    rcx,QWORD PTR [rbp-0x30]
  4059fa:	48 8b 55 c0          	mov    rdx,QWORD PTR [rbp-0x40]
  4059fe:	48 29 ca             	sub    rdx,rcx
  405a01:	48 89 55 c0          	mov    QWORD PTR [rbp-0x40],rdx
  405a05:	48 8b 4d b8          	mov    rcx,QWORD PTR [rbp-0x48]
  405a09:	48 3b 4d c0          	cmp    rcx,QWORD PTR [rbp-0x40]
  405a0d:	0f 82 10 00 00 00    	jb     405a23 <lowfat_oob_check+0x83>
  405a13:	8b 7d e4             	mov    edi,DWORD PTR [rbp-0x1c]
  405a16:	48 8b 75 d8          	mov    rsi,QWORD PTR [rbp-0x28]
  405a1a:	48 8b 55 c8          	mov    rdx,QWORD PTR [rbp-0x38]
  405a1e:	e8 7d df ff ff       	call   4039a0 <lowfat_oob_error>
  405a23:	48 83 c4 50          	add    rsp,0x50
  405a27:	5d                   	pop    rbp
  405a28:	c3                   	ret    
  405a29:	0f 1f 80 00 00 00 00 	nop    DWORD PTR [rax+0x0]

0000000000405a30 <lowfat_stack_pivot_2>:
  405a30:	55                   	push   rbp
  405a31:	48 89 e5             	mov    rbp,rsp
  405a34:	48 81 ec b0 00 00 00 	sub    rsp,0xb0
  405a3b:	48 89 7d f8          	mov    QWORD PTR [rbp-0x8],rdi
  405a3f:	48 bf 38 e2 60 00 00 	movabs rdi,0x60e238
  405a46:	00 00 00 
  405a49:	48 8b 3f             	mov    rdi,QWORD PTR [rdi]
  405a4c:	48 83 ff 00          	cmp    rdi,0x0
  405a50:	0f 85 15 00 00 00    	jne    405a6b <lowfat_stack_pivot_2+0x3b>
  405a56:	48 bf 45 a8 40 00 00 	movabs rdi,0x40a845
  405a5d:	00 00 00 
  405a60:	31 c0                	xor    eax,eax
  405a62:	88 c1                	mov    cl,al
  405a64:	88 c8                	mov    al,cl
  405a66:	e8 65 d7 ff ff       	call   4031d0 <lowfat_error>
  405a6b:	48 b8 38 e2 60 00 00 	movabs rax,0x60e238
  405a72:	00 00 00 
  405a75:	48 8b 08             	mov    rcx,QWORD PTR [rax]
  405a78:	48 89 4d f0          	mov    QWORD PTR [rbp-0x10],rcx
  405a7c:	48 c7 00 00 00 00 00 	mov    QWORD PTR [rax],0x0
  405a83:	48 8b 45 f0          	mov    rax,QWORD PTR [rbp-0x10]
  405a87:	48 89 45 e8          	mov    QWORD PTR [rbp-0x18],rax
  405a8b:	48 8b 45 f0          	mov    rax,QWORD PTR [rbp-0x10]
  405a8f:	48 83 38 00          	cmp    QWORD PTR [rax],0x0
  405a93:	0f 84 70 00 00 00    	je     405b09 <lowfat_stack_pivot_2+0xd9>
  405a99:	48 8b 45 f0          	mov    rax,QWORD PTR [rbp-0x10]
  405a9d:	48 8b 00             	mov    rax,QWORD PTR [rax]
  405aa0:	48 89 45 e0          	mov    QWORD PTR [rbp-0x20],rax
  405aa4:	48 8b 45 e0          	mov    rax,QWORD PTR [rbp-0x20]
  405aa8:	48 8b 7d e0          	mov    rdi,QWORD PTR [rbp-0x20]
  405aac:	48 89 45 80          	mov    QWORD PTR [rbp-0x80],rax
  405ab0:	e8 db b7 ff ff       	call   401290 <strlen@plt>
  405ab5:	48 8b 7d 80          	mov    rdi,QWORD PTR [rbp-0x80]
  405ab9:	48 01 c7             	add    rdi,rax
  405abc:	48 83 c7 01          	add    rdi,0x1
  405ac0:	48 89 7d d8          	mov    QWORD PTR [rbp-0x28],rdi
  405ac4:	48 8b 45 e8          	mov    rax,QWORD PTR [rbp-0x18]
  405ac8:	48 3b 45 d8          	cmp    rax,QWORD PTR [rbp-0x28]
  405acc:	0f 83 10 00 00 00    	jae    405ae2 <lowfat_stack_pivot_2+0xb2>
  405ad2:	48 8b 45 d8          	mov    rax,QWORD PTR [rbp-0x28]
  405ad6:	48 89 85 78 ff ff ff 	mov    QWORD PTR [rbp-0x88],rax
  405add:	e9 0b 00 00 00       	jmp    405aed <lowfat_stack_pivot_2+0xbd>
  405ae2:	48 8b 45 e8          	mov    rax,QWORD PTR [rbp-0x18]
  405ae6:	48 89 85 78 ff ff ff 	mov    QWORD PTR [rbp-0x88],rax
  405aed:	48 8b 85 78 ff ff ff 	mov    rax,QWORD PTR [rbp-0x88]
  405af4:	48 89 45 e8          	mov    QWORD PTR [rbp-0x18],rax
  405af8:	48 8b 45 f0          	mov    rax,QWORD PTR [rbp-0x10]
  405afc:	48 83 c0 08          	add    rax,0x8
  405b00:	48 89 45 f0          	mov    QWORD PTR [rbp-0x10],rax
  405b04:	e9 82 ff ff ff       	jmp    405a8b <lowfat_stack_pivot_2+0x5b>
  405b09:	48 8b 45 e8          	mov    rax,QWORD PTR [rbp-0x18]
  405b0d:	48 8b 4d f0          	mov    rcx,QWORD PTR [rbp-0x10]
  405b11:	48 39 c8             	cmp    rax,rcx
  405b14:	0f 83 10 00 00 00    	jae    405b2a <lowfat_stack_pivot_2+0xfa>
  405b1a:	48 8b 45 f0          	mov    rax,QWORD PTR [rbp-0x10]
  405b1e:	48 89 85 70 ff ff ff 	mov    QWORD PTR [rbp-0x90],rax
  405b25:	e9 0b 00 00 00       	jmp    405b35 <lowfat_stack_pivot_2+0x105>
  405b2a:	48 8b 45 e8          	mov    rax,QWORD PTR [rbp-0x18]
  405b2e:	48 89 85 70 ff ff ff 	mov    QWORD PTR [rbp-0x90],rax
  405b35:	48 8b 85 70 ff ff ff 	mov    rax,QWORD PTR [rbp-0x90]
  405b3c:	48 89 45 e8          	mov    QWORD PTR [rbp-0x18],rax
  405b40:	48 8b 45 e8          	mov    rax,QWORD PTR [rbp-0x18]
  405b44:	48 25 ff 0f 00 00    	and    rax,0xfff
  405b4a:	48 83 f8 00          	cmp    rax,0x0
  405b4e:	0f 84 20 00 00 00    	je     405b74 <lowfat_stack_pivot_2+0x144>
  405b54:	b8 00 10 00 00       	mov    eax,0x1000
  405b59:	89 c1                	mov    ecx,eax
  405b5b:	48 8b 55 e8          	mov    rdx,QWORD PTR [rbp-0x18]
  405b5f:	48 8b 75 e8          	mov    rsi,QWORD PTR [rbp-0x18]
  405b63:	48 81 e6 ff 0f 00 00 	and    rsi,0xfff
  405b6a:	48 29 f1             	sub    rcx,rsi
  405b6d:	48 01 ca             	add    rdx,rcx
  405b70:	48 89 55 e8          	mov    QWORD PTR [rbp-0x18],rdx
  405b74:	48 8b 45 e8          	mov    rax,QWORD PTR [rbp-0x18]
  405b78:	48 8b 4d f8          	mov    rcx,QWORD PTR [rbp-0x8]
  405b7c:	48 29 c8             	sub    rax,rcx
  405b7f:	48 89 45 d0          	mov    QWORD PTR [rbp-0x30],rax
  405b83:	e8 48 01 00 00       	call   405cd0 <lowfat_stack_alloc>
  405b88:	48 89 45 c8          	mov    QWORD PTR [rbp-0x38],rax
  405b8c:	48 83 7d c8 00       	cmp    QWORD PTR [rbp-0x38],0x0
  405b91:	0f 85 24 00 00 00    	jne    405bbb <lowfat_stack_pivot_2+0x18b>
  405b97:	e8 94 b7 ff ff       	call   401330 <__errno_location@plt>
  405b9c:	8b 38                	mov    edi,DWORD PTR [rax]
  405b9e:	e8 0d b7 ff ff       	call   4012b0 <strerror@plt>
  405ba3:	48 bf 6b a8 40 00 00 	movabs rdi,0x40a86b
  405baa:	00 00 00 
  405bad:	31 c9                	xor    ecx,ecx
  405baf:	88 ca                	mov    dl,cl
  405bb1:	48 89 c6             	mov    rsi,rax
  405bb4:	88 d0                	mov    al,dl
  405bb6:	e8 15 d6 ff ff       	call   4031d0 <lowfat_error>
  405bbb:	31 c0                	xor    eax,eax
  405bbd:	89 c1                	mov    ecx,eax
  405bbf:	48 8b 55 c8          	mov    rdx,QWORD PTR [rbp-0x38]
  405bc3:	48 81 c2 00 00 00 04 	add    rdx,0x4000000
  405bca:	48 89 55 c8          	mov    QWORD PTR [rbp-0x38],rdx
  405bce:	48 8b 55 c8          	mov    rdx,QWORD PTR [rbp-0x38]
  405bd2:	48 89 ce             	mov    rsi,rcx
  405bd5:	48 2b 75 d0          	sub    rsi,QWORD PTR [rbp-0x30]
  405bd9:	48 01 f2             	add    rdx,rsi
  405bdc:	48 8b 75 f8          	mov    rsi,QWORD PTR [rbp-0x8]
  405be0:	48 8b 7d d0          	mov    rdi,QWORD PTR [rbp-0x30]
  405be4:	48 89 bd 68 ff ff ff 	mov    QWORD PTR [rbp-0x98],rdi
  405beb:	48 89 d7             	mov    rdi,rdx
  405bee:	48 8b 95 68 ff ff ff 	mov    rdx,QWORD PTR [rbp-0x98]
  405bf5:	48 89 8d 60 ff ff ff 	mov    QWORD PTR [rbp-0xa0],rcx
  405bfc:	e8 cf b7 ff ff       	call   4013d0 <memcpy@plt>
  405c01:	48 8b 4d f8          	mov    rcx,QWORD PTR [rbp-0x8]
  405c05:	48 89 4d c0          	mov    QWORD PTR [rbp-0x40],rcx
  405c09:	48 8b 4d e8          	mov    rcx,QWORD PTR [rbp-0x18]
  405c0d:	48 89 4d b8          	mov    QWORD PTR [rbp-0x48],rcx
  405c11:	48 8b 4d c8          	mov    rcx,QWORD PTR [rbp-0x38]
  405c15:	48 8b 95 60 ff ff ff 	mov    rdx,QWORD PTR [rbp-0xa0]
  405c1c:	48 2b 55 d0          	sub    rdx,QWORD PTR [rbp-0x30]
  405c20:	48 01 d1             	add    rcx,rdx
  405c23:	48 89 4d b0          	mov    QWORD PTR [rbp-0x50],rcx
  405c27:	48 8b 4d c8          	mov    rcx,QWORD PTR [rbp-0x38]
  405c2b:	48 89 4d a8          	mov    QWORD PTR [rbp-0x58],rcx
  405c2f:	48 8b 4d b0          	mov    rcx,QWORD PTR [rbp-0x50]
  405c33:	48 89 4d a0          	mov    QWORD PTR [rbp-0x60],rcx
  405c37:	48 89 85 58 ff ff ff 	mov    QWORD PTR [rbp-0xa8],rax
  405c3e:	48 8b 45 a0          	mov    rax,QWORD PTR [rbp-0x60]
  405c42:	48 3b 45 a8          	cmp    rax,QWORD PTR [rbp-0x58]
  405c46:	0f 83 63 00 00 00    	jae    405caf <lowfat_stack_pivot_2+0x27f>
  405c4c:	48 8b 45 a0          	mov    rax,QWORD PTR [rbp-0x60]
  405c50:	48 8b 00             	mov    rax,QWORD PTR [rax]
  405c53:	48 89 45 98          	mov    QWORD PTR [rbp-0x68],rax
  405c57:	48 8b 45 98          	mov    rax,QWORD PTR [rbp-0x68]
  405c5b:	48 3b 45 c0          	cmp    rax,QWORD PTR [rbp-0x40]
  405c5f:	0f 82 34 00 00 00    	jb     405c99 <lowfat_stack_pivot_2+0x269>
  405c65:	48 8b 45 98          	mov    rax,QWORD PTR [rbp-0x68]
  405c69:	48 3b 45 b8          	cmp    rax,QWORD PTR [rbp-0x48]
  405c6d:	0f 87 26 00 00 00    	ja     405c99 <lowfat_stack_pivot_2+0x269>
  405c73:	48 8b 45 98          	mov    rax,QWORD PTR [rbp-0x68]
  405c77:	48 8b 4d c0          	mov    rcx,QWORD PTR [rbp-0x40]
  405c7b:	48 29 c8             	sub    rax,rcx
  405c7e:	48 89 45 90          	mov    QWORD PTR [rbp-0x70],rax
  405c82:	48 8b 45 b0          	mov    rax,QWORD PTR [rbp-0x50]
  405c86:	48 03 45 90          	add    rax,QWORD PTR [rbp-0x70]
  405c8a:	48 89 45 88          	mov    QWORD PTR [rbp-0x78],rax
  405c8e:	48 8b 45 88          	mov    rax,QWORD PTR [rbp-0x78]
  405c92:	48 8b 4d a0          	mov    rcx,QWORD PTR [rbp-0x60]
  405c96:	48 89 01             	mov    QWORD PTR [rcx],rax
  405c99:	e9 00 00 00 00       	jmp    405c9e <lowfat_stack_pivot_2+0x26e>
  405c9e:	48 8b 45 a0          	mov    rax,QWORD PTR [rbp-0x60]
  405ca2:	48 83 c0 08          	add    rax,0x8
  405ca6:	48 89 45 a0          	mov    QWORD PTR [rbp-0x60],rax
  405caa:	e9 8f ff ff ff       	jmp    405c3e <lowfat_stack_pivot_2+0x20e>
  405caf:	31 c0                	xor    eax,eax
  405cb1:	89 c1                	mov    ecx,eax
  405cb3:	48 8b 55 c8          	mov    rdx,QWORD PTR [rbp-0x38]
  405cb7:	48 2b 4d d0          	sub    rcx,QWORD PTR [rbp-0x30]
  405cbb:	48 01 ca             	add    rdx,rcx
  405cbe:	48 89 d0             	mov    rax,rdx
  405cc1:	48 81 c4 b0 00 00 00 	add    rsp,0xb0
  405cc8:	5d                   	pop    rbp
  405cc9:	c3                   	ret    
  405cca:	66 0f 1f 44 00 00    	nop    WORD PTR [rax+rax*1+0x0]

0000000000405cd0 <lowfat_stack_alloc>:
  405cd0:	55                   	push   rbp
  405cd1:	48 89 e5             	mov    rbp,rsp
  405cd4:	48 83 ec 70          	sub    rsp,0x70
  405cd8:	48 bf 50 e4 60 00 00 	movabs rdi,0x60e450
  405cdf:	00 00 00 
  405ce2:	e8 c9 cf ff ff       	call   402cb0 <lowfat_mutex_lock>
  405ce7:	48 c7 45 f0 00 00 00 	mov    QWORD PTR [rbp-0x10],0x0
  405cee:	00 
  405cef:	48 c7 45 e8 00 00 00 	mov    QWORD PTR [rbp-0x18],0x0
  405cf6:	00 
  405cf7:	48 bf 58 e4 60 00 00 	movabs rdi,0x60e458
